
Task 3.elf:     file format elf32-avr

Sections:
Idx Name          Size      VMA       LMA       File off  Algn
  0 .data         00000012  00800100  00001398  0000140c  2**0
                  CONTENTS, ALLOC, LOAD, DATA
  1 .text         00001398  00000000  00000000  00000074  2**1
                  CONTENTS, ALLOC, LOAD, READONLY, CODE
  2 .comment      0000005c  00000000  00000000  0000141e  2**0
                  CONTENTS, READONLY
  3 .note.gnu.avr.deviceinfo 00000040  00000000  00000000  0000147c  2**2
                  CONTENTS, READONLY
  4 .debug_aranges 000000a0  00000000  00000000  000014bc  2**0
                  CONTENTS, READONLY, DEBUGGING
  5 .debug_info   00001070  00000000  00000000  0000155c  2**0
                  CONTENTS, READONLY, DEBUGGING
  6 .debug_abbrev 00000c39  00000000  00000000  000025cc  2**0
                  CONTENTS, READONLY, DEBUGGING
  7 .debug_line   000006ea  00000000  00000000  00003205  2**0
                  CONTENTS, READONLY, DEBUGGING
  8 .debug_frame  00000128  00000000  00000000  000038f0  2**2
                  CONTENTS, READONLY, DEBUGGING
  9 .debug_str    0000058e  00000000  00000000  00003a18  2**0
                  CONTENTS, READONLY, DEBUGGING
 10 .debug_loc    000005be  00000000  00000000  00003fa6  2**0
                  CONTENTS, READONLY, DEBUGGING
 11 .debug_ranges 00000070  00000000  00000000  00004564  2**0
                  CONTENTS, READONLY, DEBUGGING

Disassembly of section .text:

00000000 <__vectors>:
       0:	0c 94 db 00 	jmp	0x1b6	; 0x1b6 <__ctors_end>
       4:	0c 94 f0 00 	jmp	0x1e0	; 0x1e0 <__bad_interrupt>
       8:	0c 94 f0 00 	jmp	0x1e0	; 0x1e0 <__bad_interrupt>
       c:	0c 94 f0 00 	jmp	0x1e0	; 0x1e0 <__bad_interrupt>
      10:	0c 94 f0 00 	jmp	0x1e0	; 0x1e0 <__bad_interrupt>
      14:	0c 94 f0 00 	jmp	0x1e0	; 0x1e0 <__bad_interrupt>
      18:	0c 94 f0 00 	jmp	0x1e0	; 0x1e0 <__bad_interrupt>
      1c:	0c 94 f0 00 	jmp	0x1e0	; 0x1e0 <__bad_interrupt>
      20:	0c 94 f0 00 	jmp	0x1e0	; 0x1e0 <__bad_interrupt>
      24:	0c 94 f0 00 	jmp	0x1e0	; 0x1e0 <__bad_interrupt>
      28:	0c 94 f0 00 	jmp	0x1e0	; 0x1e0 <__bad_interrupt>
      2c:	0c 94 f0 00 	jmp	0x1e0	; 0x1e0 <__bad_interrupt>
      30:	0c 94 f0 00 	jmp	0x1e0	; 0x1e0 <__bad_interrupt>
      34:	0c 94 f0 00 	jmp	0x1e0	; 0x1e0 <__bad_interrupt>
      38:	0c 94 f0 00 	jmp	0x1e0	; 0x1e0 <__bad_interrupt>
      3c:	0c 94 f0 00 	jmp	0x1e0	; 0x1e0 <__bad_interrupt>
      40:	0c 94 f0 00 	jmp	0x1e0	; 0x1e0 <__bad_interrupt>
      44:	0c 94 f0 00 	jmp	0x1e0	; 0x1e0 <__bad_interrupt>
      48:	0c 94 f0 00 	jmp	0x1e0	; 0x1e0 <__bad_interrupt>
      4c:	0c 94 f0 00 	jmp	0x1e0	; 0x1e0 <__bad_interrupt>
      50:	0c 94 f0 00 	jmp	0x1e0	; 0x1e0 <__bad_interrupt>
      54:	0c 94 f0 00 	jmp	0x1e0	; 0x1e0 <__bad_interrupt>
      58:	0c 94 f0 00 	jmp	0x1e0	; 0x1e0 <__bad_interrupt>
      5c:	0c 94 f0 00 	jmp	0x1e0	; 0x1e0 <__bad_interrupt>
      60:	0c 94 f0 00 	jmp	0x1e0	; 0x1e0 <__bad_interrupt>
      64:	0c 94 f0 00 	jmp	0x1e0	; 0x1e0 <__bad_interrupt>
      68:	0c 94 f0 00 	jmp	0x1e0	; 0x1e0 <__bad_interrupt>
      6c:	0c 94 f0 00 	jmp	0x1e0	; 0x1e0 <__bad_interrupt>
      70:	0c 94 f0 00 	jmp	0x1e0	; 0x1e0 <__bad_interrupt>
      74:	0c 94 f0 00 	jmp	0x1e0	; 0x1e0 <__bad_interrupt>
      78:	0c 94 f0 00 	jmp	0x1e0	; 0x1e0 <__bad_interrupt>
      7c:	0c 94 f0 00 	jmp	0x1e0	; 0x1e0 <__bad_interrupt>
      80:	0c 94 f0 00 	jmp	0x1e0	; 0x1e0 <__bad_interrupt>
      84:	0c 94 f0 00 	jmp	0x1e0	; 0x1e0 <__bad_interrupt>
      88:	0c 94 f0 00 	jmp	0x1e0	; 0x1e0 <__bad_interrupt>
      8c:	0c 94 f0 00 	jmp	0x1e0	; 0x1e0 <__bad_interrupt>
      90:	0c 94 f0 00 	jmp	0x1e0	; 0x1e0 <__bad_interrupt>
      94:	0c 94 f0 00 	jmp	0x1e0	; 0x1e0 <__bad_interrupt>
      98:	0c 94 f0 00 	jmp	0x1e0	; 0x1e0 <__bad_interrupt>
      9c:	0c 94 f0 00 	jmp	0x1e0	; 0x1e0 <__bad_interrupt>
      a0:	0c 94 f0 00 	jmp	0x1e0	; 0x1e0 <__bad_interrupt>
      a4:	0c 94 f0 00 	jmp	0x1e0	; 0x1e0 <__bad_interrupt>
      a8:	0c 94 f0 00 	jmp	0x1e0	; 0x1e0 <__bad_interrupt>
      ac:	0c 94 f0 00 	jmp	0x1e0	; 0x1e0 <__bad_interrupt>
      b0:	0c 94 f0 00 	jmp	0x1e0	; 0x1e0 <__bad_interrupt>

000000b4 <__trampolines_end>:
      b4:	6e 61       	ori	r22, 0x1E	; 30
      b6:	6e 00       	.word	0x006e	; ????

000000b8 <__c.2332>:
      b8:	69 6e 66 00 00 40 7a 10 f3 5a 00 a0 72 4e 18 09     inf..@z..Z..rN..
      c8:	00 10 a5 d4 e8 00 00 e8 76 48 17 00 00 e4 0b 54     ........vH.....T
      d8:	02 00 00 ca 9a 3b 00 00 00 e1 f5 05 00 00 80 96     .....;..........
      e8:	98 00 00 00 40 42 0f 00 00 00 a0 86 01 00 00 00     ....@B..........
      f8:	10 27 00 00 00 00 e8 03 00 00 00 00 64 00 00 00     .'..........d...
     108:	00 00 0a 00 00 00 00 00 01 00 00 00 00 00 2c 76     ..............,v
     118:	d8 88 dc 67 4f 08 23 df c1 df ae 59 e1 b1 b7 96     ...gO.#....Y....
     128:	e5 e3 e4 53 c6 3a e6 51 99 76 96 e8 e6 c2 84 26     ...S.:.Q.v.....&
     138:	eb 89 8c 9b 62 ed 40 7c 6f fc ef bc 9c 9f 40 f2     ....b.@|o.....@.
     148:	ba a5 6f a5 f4 90 05 5a 2a f7 5c 93 6b 6c f9 67     ..o....Z*.\.kl.g
     158:	6d c1 1b fc e0 e4 0d 47 fe f5 20 e6 b5 00 d0 ed     m......G.. .....
     168:	90 2e 03 00 94 35 77 05 00 80 84 1e 08 00 00 20     .....5w........ 
     178:	4e 0a 00 00 00 c8 0c 33 33 33 33 0f 98 6e 12 83     N......3333..n..
     188:	11 41 ef 8d 21 14 89 3b e6 55 16 cf fe e6 db 18     .A..!..;.U......
     198:	d1 84 4b 38 1b f7 7c 1d 90 1d a4 bb e4 24 20 32     ..K8..|......$ 2
     1a8:	84 72 5e 22 81 00 c9 f1 24 ec a1 e5 3d 27           .r^"....$...='

000001b6 <__ctors_end>:
     1b6:	11 24       	eor	r1, r1
     1b8:	1f be       	out	0x3f, r1	; 63
     1ba:	cf ef       	ldi	r28, 0xFF	; 255
     1bc:	d8 e0       	ldi	r29, 0x08	; 8
     1be:	de bf       	out	0x3e, r29	; 62
     1c0:	cd bf       	out	0x3d, r28	; 61

000001c2 <__do_copy_data>:
     1c2:	11 e0       	ldi	r17, 0x01	; 1
     1c4:	a0 e0       	ldi	r26, 0x00	; 0
     1c6:	b1 e0       	ldi	r27, 0x01	; 1
     1c8:	e8 e9       	ldi	r30, 0x98	; 152
     1ca:	f3 e1       	ldi	r31, 0x13	; 19
     1cc:	02 c0       	rjmp	.+4      	; 0x1d2 <__do_copy_data+0x10>
     1ce:	05 90       	lpm	r0, Z+
     1d0:	0d 92       	st	X+, r0
     1d2:	a2 31       	cpi	r26, 0x12	; 18
     1d4:	b1 07       	cpc	r27, r17
     1d6:	d9 f7       	brne	.-10     	; 0x1ce <__do_copy_data+0xc>
     1d8:	0e 94 7c 01 	call	0x2f8	; 0x2f8 <main>
     1dc:	0c 94 ca 09 	jmp	0x1394	; 0x1394 <_exit>

000001e0 <__bad_interrupt>:
     1e0:	0c 94 00 00 	jmp	0	; 0x0 <__vectors>

000001e4 <ds18b20_reset>:
 */
uint8_t ds18b20_reset() {
	uint8_t i;

	//low for 480us
	DS18B20_PORT &= ~ (1<<DS18B20_DQ); //low
     1e4:	44 98       	cbi	0x08, 4	; 8
	DS18B20_DDR |= (1<<DS18B20_DQ); //output
     1e6:	3c 9a       	sbi	0x07, 4	; 7
	#else
		//round up by default
		__ticks_dc = (uint32_t)(ceil(fabs(__tmp)));
	#endif

	__builtin_avr_delay_cycles(__ticks_dc);
     1e8:	8f e7       	ldi	r24, 0x7F	; 127
     1ea:	97 e0       	ldi	r25, 0x07	; 7
     1ec:	01 97       	sbiw	r24, 0x01	; 1
     1ee:	f1 f7       	brne	.-4      	; 0x1ec <ds18b20_reset+0x8>
     1f0:	00 c0       	rjmp	.+0      	; 0x1f2 <ds18b20_reset+0xe>
     1f2:	00 00       	nop
	_delay_us(480);

	//release line and wait for 60uS
	DS18B20_DDR &= ~(1<<DS18B20_DQ); //input
     1f4:	3c 98       	cbi	0x07, 4	; 7
     1f6:	ef ee       	ldi	r30, 0xEF	; 239
     1f8:	f0 e0       	ldi	r31, 0x00	; 0
     1fa:	31 97       	sbiw	r30, 0x01	; 1
     1fc:	f1 f7       	brne	.-4      	; 0x1fa <ds18b20_reset+0x16>
     1fe:	00 c0       	rjmp	.+0      	; 0x200 <ds18b20_reset+0x1c>
     200:	00 00       	nop
	_delay_us(60);

	//get value and wait 420us
	i = (DS18B20_PIN & (1<<DS18B20_DQ));
     202:	86 b1       	in	r24, 0x06	; 6
     204:	ef e8       	ldi	r30, 0x8F	; 143
     206:	f6 e0       	ldi	r31, 0x06	; 6
     208:	31 97       	sbiw	r30, 0x01	; 1
     20a:	f1 f7       	brne	.-4      	; 0x208 <ds18b20_reset+0x24>
     20c:	00 c0       	rjmp	.+0      	; 0x20e <ds18b20_reset+0x2a>
     20e:	00 00       	nop
	_delay_us(420);

	//return the read value, 0=ok, 1=error
	return i;
}
     210:	80 71       	andi	r24, 0x10	; 16
     212:	08 95       	ret

00000214 <ds18b20_writebit>:
/*
 * write one bit
 */
void ds18b20_writebit(uint8_t bit){
	//low for 1uS
	DS18B20_PORT &= ~ (1<<DS18B20_DQ); //low
     214:	44 98       	cbi	0x08, 4	; 8
	DS18B20_DDR |= (1<<DS18B20_DQ); //output
     216:	3c 9a       	sbi	0x07, 4	; 7
     218:	95 e0       	ldi	r25, 0x05	; 5
     21a:	9a 95       	dec	r25
     21c:	f1 f7       	brne	.-4      	; 0x21a <ds18b20_writebit+0x6>
     21e:	00 00       	nop
	_delay_us(1);

	//if we want to write 1, release the line (if not will keep low)
	if(bit)
     220:	81 11       	cpse	r24, r1
		DS18B20_DDR &= ~(1<<DS18B20_DQ); //input
     222:	3c 98       	cbi	0x07, 4	; 7
     224:	8f ee       	ldi	r24, 0xEF	; 239
     226:	90 e0       	ldi	r25, 0x00	; 0
     228:	01 97       	sbiw	r24, 0x01	; 1
     22a:	f1 f7       	brne	.-4      	; 0x228 <ds18b20_writebit+0x14>
     22c:	00 c0       	rjmp	.+0      	; 0x22e <ds18b20_writebit+0x1a>
     22e:	00 00       	nop

	//wait 60uS and release the line
	_delay_us(60);
	DS18B20_DDR &= ~(1<<DS18B20_DQ); //input
     230:	3c 98       	cbi	0x07, 4	; 7
     232:	08 95       	ret

00000234 <ds18b20_readbit>:
 */
uint8_t ds18b20_readbit(void){
	uint8_t bit=0;

	//low for 1uS
	DS18B20_PORT &= ~ (1<<DS18B20_DQ); //low
     234:	44 98       	cbi	0x08, 4	; 8
	DS18B20_DDR |= (1<<DS18B20_DQ); //output
     236:	3c 9a       	sbi	0x07, 4	; 7
     238:	85 e0       	ldi	r24, 0x05	; 5
     23a:	8a 95       	dec	r24
     23c:	f1 f7       	brne	.-4      	; 0x23a <ds18b20_readbit+0x6>
     23e:	00 00       	nop
	_delay_us(1);

	//release line and wait for 14uS
	DS18B20_DDR &= ~(1<<DS18B20_DQ); //input
     240:	3c 98       	cbi	0x07, 4	; 7
     242:	9a e4       	ldi	r25, 0x4A	; 74
     244:	9a 95       	dec	r25
     246:	f1 f7       	brne	.-4      	; 0x244 <ds18b20_readbit+0x10>
     248:	00 c0       	rjmp	.+0      	; 0x24a <ds18b20_readbit+0x16>
	_delay_us(14);

	//read the value
	if(DS18B20_PIN & (1<<DS18B20_DQ))
     24a:	86 b1       	in	r24, 0x06	; 6
     24c:	90 ef       	ldi	r25, 0xF0	; 240
     24e:	9a 95       	dec	r25
     250:	f1 f7       	brne	.-4      	; 0x24e <ds18b20_readbit+0x1a>
		bit=1;

	//wait 45uS and return read value
	_delay_us(45);
	return bit;
}
     252:	82 95       	swap	r24
     254:	81 70       	andi	r24, 0x01	; 1
     256:	08 95       	ret

00000258 <ds18b20_writebyte>:

/*
 * write one byte
 */
void ds18b20_writebyte(uint8_t byte){
     258:	cf 93       	push	r28
     25a:	df 93       	push	r29
     25c:	d8 2f       	mov	r29, r24
     25e:	c8 e0       	ldi	r28, 0x08	; 8
	uint8_t i=8;
	while(i--){
		ds18b20_writebit(byte&1);
     260:	8d 2f       	mov	r24, r29
     262:	81 70       	andi	r24, 0x01	; 1
     264:	0e 94 0a 01 	call	0x214	; 0x214 <ds18b20_writebit>
		byte >>= 1;
     268:	d6 95       	lsr	r29
     26a:	c1 50       	subi	r28, 0x01	; 1
/*
 * write one byte
 */
void ds18b20_writebyte(uint8_t byte){
	uint8_t i=8;
	while(i--){
     26c:	c9 f7       	brne	.-14     	; 0x260 <ds18b20_writebyte+0x8>
		ds18b20_writebit(byte&1);
		byte >>= 1;
	}
}
     26e:	df 91       	pop	r29
     270:	cf 91       	pop	r28
     272:	08 95       	ret

00000274 <ds18b20_readbyte>:

/*
 * read one byte
 */
uint8_t ds18b20_readbyte(void){
     274:	cf 93       	push	r28
     276:	df 93       	push	r29
     278:	d8 e0       	ldi	r29, 0x08	; 8
	uint8_t i=8, n=0;
     27a:	c0 e0       	ldi	r28, 0x00	; 0
	while(i--){
		n >>= 1;
		n |= (ds18b20_readbit()<<7);
     27c:	0e 94 1a 01 	call	0x234	; 0x234 <ds18b20_readbit>
     280:	20 e8       	ldi	r18, 0x80	; 128
     282:	82 9f       	mul	r24, r18
     284:	c0 01       	movw	r24, r0
     286:	11 24       	eor	r1, r1
     288:	c6 95       	lsr	r28
     28a:	c8 2b       	or	r28, r24
     28c:	d1 50       	subi	r29, 0x01	; 1
/*
 * read one byte
 */
uint8_t ds18b20_readbyte(void){
	uint8_t i=8, n=0;
	while(i--){
     28e:	b1 f7       	brne	.-20     	; 0x27c <ds18b20_readbyte+0x8>
		n >>= 1;
		n |= (ds18b20_readbit()<<7);
	}
	return n;
}
     290:	8c 2f       	mov	r24, r28
     292:	df 91       	pop	r29
     294:	cf 91       	pop	r28
     296:	08 95       	ret

00000298 <ds18b20_gettemp>:

/*
 * get temperature
 */
double ds18b20_gettemp() {
     298:	cf 93       	push	r28
	uint8_t temperature_l;
	uint8_t temperature_h;
	double retd = 0;

	#if DS18B20_STOPINTERRUPTONREAD == 1
	cli();
     29a:	f8 94       	cli
	#endif

	ds18b20_reset(); //reset
     29c:	0e 94 f2 00 	call	0x1e4	; 0x1e4 <ds18b20_reset>
	ds18b20_writebyte(DS18B20_CMD_SKIPROM); //skip ROM
     2a0:	8c ec       	ldi	r24, 0xCC	; 204
     2a2:	0e 94 2c 01 	call	0x258	; 0x258 <ds18b20_writebyte>
	ds18b20_writebyte(DS18B20_CMD_CONVERTTEMP); //start temperature conversion
     2a6:	84 e4       	ldi	r24, 0x44	; 68
     2a8:	0e 94 2c 01 	call	0x258	; 0x258 <ds18b20_writebyte>

	while(!ds18b20_readbit()); //wait until conversion is complete
     2ac:	0e 94 1a 01 	call	0x234	; 0x234 <ds18b20_readbit>
     2b0:	88 23       	and	r24, r24
     2b2:	e1 f3       	breq	.-8      	; 0x2ac <ds18b20_gettemp+0x14>

	ds18b20_reset(); //reset
     2b4:	0e 94 f2 00 	call	0x1e4	; 0x1e4 <ds18b20_reset>
	ds18b20_writebyte(DS18B20_CMD_SKIPROM); //skip ROM
     2b8:	8c ec       	ldi	r24, 0xCC	; 204
     2ba:	0e 94 2c 01 	call	0x258	; 0x258 <ds18b20_writebyte>
	ds18b20_writebyte(DS18B20_CMD_RSCRATCHPAD); //read scratchpad
     2be:	8e eb       	ldi	r24, 0xBE	; 190
     2c0:	0e 94 2c 01 	call	0x258	; 0x258 <ds18b20_writebyte>

	//read 2 byte from scratchpad
	temperature_l = ds18b20_readbyte();
     2c4:	0e 94 3a 01 	call	0x274	; 0x274 <ds18b20_readbyte>
     2c8:	c8 2f       	mov	r28, r24
	temperature_h = ds18b20_readbyte();
     2ca:	0e 94 3a 01 	call	0x274	; 0x274 <ds18b20_readbyte>

	#if DS18B20_STOPINTERRUPTONREAD == 1
	sei();
     2ce:	78 94       	sei
	#endif

	//convert the 12 bit value obtained
	retd = ( ( temperature_h << 8 ) + temperature_l ) * 0.0625;

	return retd;
     2d0:	68 2f       	mov	r22, r24
     2d2:	70 e0       	ldi	r23, 0x00	; 0
     2d4:	76 2f       	mov	r23, r22
     2d6:	66 27       	eor	r22, r22
     2d8:	6c 0f       	add	r22, r28
     2da:	71 1d       	adc	r23, r1
     2dc:	07 2e       	mov	r0, r23
     2de:	00 0c       	add	r0, r0
     2e0:	88 0b       	sbc	r24, r24
     2e2:	99 0b       	sbc	r25, r25
     2e4:	0e 94 f9 01 	call	0x3f2	; 0x3f2 <__floatsisf>
     2e8:	20 e0       	ldi	r18, 0x00	; 0
     2ea:	30 e0       	ldi	r19, 0x00	; 0
     2ec:	40 e8       	ldi	r20, 0x80	; 128
     2ee:	5d e3       	ldi	r21, 0x3D	; 61
     2f0:	0e 94 34 02 	call	0x468	; 0x468 <__mulsf3>
     2f4:	cf 91       	pop	r28
     2f6:	08 95       	ret

000002f8 <main>:
#include <util/delay.h>

#include "ds18b20.h"
#include "uart.h"

int main(void) {
     2f8:	cf 93       	push	r28
     2fa:	df 93       	push	r29
     2fc:	cd b7       	in	r28, 0x3d	; 61
     2fe:	de b7       	in	r29, 0x3e	; 62
     300:	c4 56       	subi	r28, 0x64	; 100
     302:	d1 09       	sbc	r29, r1
     304:	0f b6       	in	r0, 0x3f	; 63
     306:	f8 94       	cli
     308:	de bf       	out	0x3e, r29	; 62
     30a:	0f be       	out	0x3f, r0	; 63
     30c:	cd bf       	out	0x3d, r28	; 61
	char printbuff[100];
	double d = 0;
	//init uart
	USART_Init( 9600);
     30e:	60 e8       	ldi	r22, 0x80	; 128
     310:	75 e2       	ldi	r23, 0x25	; 37
     312:	80 e0       	ldi	r24, 0x00	; 0
     314:	90 e0       	ldi	r25, 0x00	; 0
     316:	0e 94 ac 01 	call	0x358	; 0x358 <USART_Init>
	//init interrupt
	sei();
     31a:	78 94       	sei
	while(1) {
		d = ds18b20_gettemp();
     31c:	0e 94 4c 01 	call	0x298	; 0x298 <ds18b20_gettemp>
		dtostrf(d, 10, 3, printbuff);
     320:	8e 01       	movw	r16, r28
     322:	0f 5f       	subi	r16, 0xFF	; 255
     324:	1f 4f       	sbci	r17, 0xFF	; 255
     326:	23 e0       	ldi	r18, 0x03	; 3
     328:	4a e0       	ldi	r20, 0x0A	; 10
     32a:	0e 94 c8 06 	call	0xd90	; 0xd90 <dtostrf>
		USART_SendString("Temperature: ");
     32e:	80 e0       	ldi	r24, 0x00	; 0
     330:	91 e0       	ldi	r25, 0x01	; 1
     332:	0e 94 e8 01 	call	0x3d0	; 0x3d0 <USART_SendString>
		USART_SendString(printbuff);
     336:	c8 01       	movw	r24, r16
     338:	0e 94 e8 01 	call	0x3d0	; 0x3d0 <USART_SendString>
		USART_SendString("\r\n");
     33c:	8e e0       	ldi	r24, 0x0E	; 14
     33e:	91 e0       	ldi	r25, 0x01	; 1
     340:	0e 94 e8 01 	call	0x3d0	; 0x3d0 <USART_SendString>
	#else
		//round up by default
		__ticks_dc = (uint32_t)(ceil(fabs(__tmp)));
	#endif

	__builtin_avr_delay_cycles(__ticks_dc);
     344:	2f ef       	ldi	r18, 0xFF	; 255
     346:	89 e6       	ldi	r24, 0x69	; 105
     348:	98 e1       	ldi	r25, 0x18	; 24
     34a:	21 50       	subi	r18, 0x01	; 1
     34c:	80 40       	sbci	r24, 0x00	; 0
     34e:	90 40       	sbci	r25, 0x00	; 0
     350:	e1 f7       	brne	.-8      	; 0x34a <main+0x52>
     352:	00 c0       	rjmp	.+0      	; 0x354 <main+0x5c>
     354:	00 00       	nop
     356:	e2 cf       	rjmp	.-60     	; 0x31c <main+0x24>

00000358 <USART_Init>:

char USART_RxChar()									/* Data receiving function */
{
	while (!(UCSR0A & (1 << RXC0)));					/* Wait until new data receive */
	return(UDR0);									/* Get and return received data */ 
}
     358:	e1 ec       	ldi	r30, 0xC1	; 193
     35a:	f0 e0       	ldi	r31, 0x00	; 0
     35c:	20 81       	ld	r18, Z
     35e:	28 61       	ori	r18, 0x18	; 24
     360:	20 83       	st	Z, r18
     362:	e2 ec       	ldi	r30, 0xC2	; 194
     364:	f0 e0       	ldi	r31, 0x00	; 0
     366:	20 81       	ld	r18, Z
     368:	26 60       	ori	r18, 0x06	; 6
     36a:	20 83       	st	Z, r18
     36c:	dc 01       	movw	r26, r24
     36e:	cb 01       	movw	r24, r22
     370:	88 0f       	add	r24, r24
     372:	99 1f       	adc	r25, r25
     374:	aa 1f       	adc	r26, r26
     376:	bb 1f       	adc	r27, r27
     378:	88 0f       	add	r24, r24
     37a:	99 1f       	adc	r25, r25
     37c:	aa 1f       	adc	r26, r26
     37e:	bb 1f       	adc	r27, r27
     380:	9c 01       	movw	r18, r24
     382:	ad 01       	movw	r20, r26
     384:	22 0f       	add	r18, r18
     386:	33 1f       	adc	r19, r19
     388:	44 1f       	adc	r20, r20
     38a:	55 1f       	adc	r21, r21
     38c:	22 0f       	add	r18, r18
     38e:	33 1f       	adc	r19, r19
     390:	44 1f       	adc	r20, r20
     392:	55 1f       	adc	r21, r21
     394:	60 e0       	ldi	r22, 0x00	; 0
     396:	74 e2       	ldi	r23, 0x24	; 36
     398:	84 ef       	ldi	r24, 0xF4	; 244
     39a:	90 e0       	ldi	r25, 0x00	; 0
     39c:	0e 94 6f 06 	call	0xcde	; 0xcde <__udivmodsi4>
     3a0:	8f ef       	ldi	r24, 0xFF	; 255
     3a2:	82 0f       	add	r24, r18
     3a4:	80 93 c4 00 	sts	0x00C4, r24	; 0x8000c4 <__DATA_REGION_ORIGIN__+0x64>
     3a8:	da 01       	movw	r26, r20
     3aa:	c9 01       	movw	r24, r18
     3ac:	01 97       	sbiw	r24, 0x01	; 1
     3ae:	a1 09       	sbc	r26, r1
     3b0:	b1 09       	sbc	r27, r1
     3b2:	89 2f       	mov	r24, r25
     3b4:	9a 2f       	mov	r25, r26
     3b6:	ab 2f       	mov	r26, r27
     3b8:	bb 27       	eor	r27, r27
     3ba:	80 93 c5 00 	sts	0x00C5, r24	; 0x8000c5 <__DATA_REGION_ORIGIN__+0x65>
     3be:	08 95       	ret

000003c0 <USART_TxChar>:

void USART_TxChar(char data)						/* Data transmitting function */
{
	UDR0 = data;										/* Write data to be transmitting in UDR */
     3c0:	80 93 c6 00 	sts	0x00C6, r24	; 0x8000c6 <__DATA_REGION_ORIGIN__+0x66>
	while (!(UCSR0A & (1<<UDRE0)));					/* Wait until data transmit and buffer get empty */
     3c4:	e0 ec       	ldi	r30, 0xC0	; 192
     3c6:	f0 e0       	ldi	r31, 0x00	; 0
     3c8:	80 81       	ld	r24, Z
     3ca:	85 ff       	sbrs	r24, 5
     3cc:	fd cf       	rjmp	.-6      	; 0x3c8 <USART_TxChar+0x8>
}
     3ce:	08 95       	ret

000003d0 <USART_SendString>:

void USART_SendString(char *str)					/* Send string of USART data function */ 
{
     3d0:	cf 93       	push	r28
     3d2:	df 93       	push	r29
     3d4:	ec 01       	movw	r28, r24
	int i=0;																	
	while (str[i]!=0)
     3d6:	88 81       	ld	r24, Y
     3d8:	88 23       	and	r24, r24
     3da:	31 f0       	breq	.+12     	; 0x3e8 <USART_SendString+0x18>
     3dc:	21 96       	adiw	r28, 0x01	; 1
	{
		USART_TxChar(str[i]);						/* Send each char of string till the NULL */
     3de:	0e 94 e0 01 	call	0x3c0	; 0x3c0 <USART_TxChar>
}

void USART_SendString(char *str)					/* Send string of USART data function */ 
{
	int i=0;																	
	while (str[i]!=0)
     3e2:	89 91       	ld	r24, Y+
     3e4:	81 11       	cpse	r24, r1
     3e6:	fb cf       	rjmp	.-10     	; 0x3de <USART_SendString+0xe>
	{
		USART_TxChar(str[i]);						/* Send each char of string till the NULL */
		i++;
	}
     3e8:	df 91       	pop	r29
     3ea:	cf 91       	pop	r28
     3ec:	08 95       	ret

000003ee <__floatunsisf>:
     3ee:	e8 94       	clt
     3f0:	09 c0       	rjmp	.+18     	; 0x404 <__LOCK_REGION_LENGTH__+0x4>

000003f2 <__floatsisf>:
     3f2:	97 fb       	bst	r25, 7
     3f4:	3e f4       	brtc	.+14     	; 0x404 <__LOCK_REGION_LENGTH__+0x4>
     3f6:	90 95       	com	r25
     3f8:	80 95       	com	r24
     3fa:	70 95       	com	r23
     3fc:	61 95       	neg	r22
     3fe:	7f 4f       	sbci	r23, 0xFF	; 255
     400:	8f 4f       	sbci	r24, 0xFF	; 255
     402:	9f 4f       	sbci	r25, 0xFF	; 255
     404:	99 23       	and	r25, r25
     406:	a9 f0       	breq	.+42     	; 0x432 <__LOCK_REGION_LENGTH__+0x32>
     408:	f9 2f       	mov	r31, r25
     40a:	96 e9       	ldi	r25, 0x96	; 150
     40c:	bb 27       	eor	r27, r27
     40e:	93 95       	inc	r25
     410:	f6 95       	lsr	r31
     412:	87 95       	ror	r24
     414:	77 95       	ror	r23
     416:	67 95       	ror	r22
     418:	b7 95       	ror	r27
     41a:	f1 11       	cpse	r31, r1
     41c:	f8 cf       	rjmp	.-16     	; 0x40e <__LOCK_REGION_LENGTH__+0xe>
     41e:	fa f4       	brpl	.+62     	; 0x45e <__LOCK_REGION_LENGTH__+0x5e>
     420:	bb 0f       	add	r27, r27
     422:	11 f4       	brne	.+4      	; 0x428 <__LOCK_REGION_LENGTH__+0x28>
     424:	60 ff       	sbrs	r22, 0
     426:	1b c0       	rjmp	.+54     	; 0x45e <__LOCK_REGION_LENGTH__+0x5e>
     428:	6f 5f       	subi	r22, 0xFF	; 255
     42a:	7f 4f       	sbci	r23, 0xFF	; 255
     42c:	8f 4f       	sbci	r24, 0xFF	; 255
     42e:	9f 4f       	sbci	r25, 0xFF	; 255
     430:	16 c0       	rjmp	.+44     	; 0x45e <__LOCK_REGION_LENGTH__+0x5e>
     432:	88 23       	and	r24, r24
     434:	11 f0       	breq	.+4      	; 0x43a <__LOCK_REGION_LENGTH__+0x3a>
     436:	96 e9       	ldi	r25, 0x96	; 150
     438:	11 c0       	rjmp	.+34     	; 0x45c <__LOCK_REGION_LENGTH__+0x5c>
     43a:	77 23       	and	r23, r23
     43c:	21 f0       	breq	.+8      	; 0x446 <__LOCK_REGION_LENGTH__+0x46>
     43e:	9e e8       	ldi	r25, 0x8E	; 142
     440:	87 2f       	mov	r24, r23
     442:	76 2f       	mov	r23, r22
     444:	05 c0       	rjmp	.+10     	; 0x450 <__LOCK_REGION_LENGTH__+0x50>
     446:	66 23       	and	r22, r22
     448:	71 f0       	breq	.+28     	; 0x466 <__LOCK_REGION_LENGTH__+0x66>
     44a:	96 e8       	ldi	r25, 0x86	; 134
     44c:	86 2f       	mov	r24, r22
     44e:	70 e0       	ldi	r23, 0x00	; 0
     450:	60 e0       	ldi	r22, 0x00	; 0
     452:	2a f0       	brmi	.+10     	; 0x45e <__LOCK_REGION_LENGTH__+0x5e>
     454:	9a 95       	dec	r25
     456:	66 0f       	add	r22, r22
     458:	77 1f       	adc	r23, r23
     45a:	88 1f       	adc	r24, r24
     45c:	da f7       	brpl	.-10     	; 0x454 <__LOCK_REGION_LENGTH__+0x54>
     45e:	88 0f       	add	r24, r24
     460:	96 95       	lsr	r25
     462:	87 95       	ror	r24
     464:	97 f9       	bld	r25, 7
     466:	08 95       	ret

00000468 <__mulsf3>:
     468:	0e 94 47 02 	call	0x48e	; 0x48e <__mulsf3x>
     46c:	0c 94 b8 02 	jmp	0x570	; 0x570 <__fp_round>
     470:	0e 94 aa 02 	call	0x554	; 0x554 <__fp_pscA>
     474:	38 f0       	brcs	.+14     	; 0x484 <__mulsf3+0x1c>
     476:	0e 94 b1 02 	call	0x562	; 0x562 <__fp_pscB>
     47a:	20 f0       	brcs	.+8      	; 0x484 <__mulsf3+0x1c>
     47c:	95 23       	and	r25, r21
     47e:	11 f0       	breq	.+4      	; 0x484 <__mulsf3+0x1c>
     480:	0c 94 a1 02 	jmp	0x542	; 0x542 <__fp_inf>
     484:	0c 94 a7 02 	jmp	0x54e	; 0x54e <__fp_nan>
     488:	11 24       	eor	r1, r1
     48a:	0c 94 ec 02 	jmp	0x5d8	; 0x5d8 <__fp_szero>

0000048e <__mulsf3x>:
     48e:	0e 94 c9 02 	call	0x592	; 0x592 <__fp_split3>
     492:	70 f3       	brcs	.-36     	; 0x470 <__mulsf3+0x8>

00000494 <__mulsf3_pse>:
     494:	95 9f       	mul	r25, r21
     496:	c1 f3       	breq	.-16     	; 0x488 <__mulsf3+0x20>
     498:	95 0f       	add	r25, r21
     49a:	50 e0       	ldi	r21, 0x00	; 0
     49c:	55 1f       	adc	r21, r21
     49e:	62 9f       	mul	r22, r18
     4a0:	f0 01       	movw	r30, r0
     4a2:	72 9f       	mul	r23, r18
     4a4:	bb 27       	eor	r27, r27
     4a6:	f0 0d       	add	r31, r0
     4a8:	b1 1d       	adc	r27, r1
     4aa:	63 9f       	mul	r22, r19
     4ac:	aa 27       	eor	r26, r26
     4ae:	f0 0d       	add	r31, r0
     4b0:	b1 1d       	adc	r27, r1
     4b2:	aa 1f       	adc	r26, r26
     4b4:	64 9f       	mul	r22, r20
     4b6:	66 27       	eor	r22, r22
     4b8:	b0 0d       	add	r27, r0
     4ba:	a1 1d       	adc	r26, r1
     4bc:	66 1f       	adc	r22, r22
     4be:	82 9f       	mul	r24, r18
     4c0:	22 27       	eor	r18, r18
     4c2:	b0 0d       	add	r27, r0
     4c4:	a1 1d       	adc	r26, r1
     4c6:	62 1f       	adc	r22, r18
     4c8:	73 9f       	mul	r23, r19
     4ca:	b0 0d       	add	r27, r0
     4cc:	a1 1d       	adc	r26, r1
     4ce:	62 1f       	adc	r22, r18
     4d0:	83 9f       	mul	r24, r19
     4d2:	a0 0d       	add	r26, r0
     4d4:	61 1d       	adc	r22, r1
     4d6:	22 1f       	adc	r18, r18
     4d8:	74 9f       	mul	r23, r20
     4da:	33 27       	eor	r19, r19
     4dc:	a0 0d       	add	r26, r0
     4de:	61 1d       	adc	r22, r1
     4e0:	23 1f       	adc	r18, r19
     4e2:	84 9f       	mul	r24, r20
     4e4:	60 0d       	add	r22, r0
     4e6:	21 1d       	adc	r18, r1
     4e8:	82 2f       	mov	r24, r18
     4ea:	76 2f       	mov	r23, r22
     4ec:	6a 2f       	mov	r22, r26
     4ee:	11 24       	eor	r1, r1
     4f0:	9f 57       	subi	r25, 0x7F	; 127
     4f2:	50 40       	sbci	r21, 0x00	; 0
     4f4:	9a f0       	brmi	.+38     	; 0x51c <__mulsf3_pse+0x88>
     4f6:	f1 f0       	breq	.+60     	; 0x534 <__mulsf3_pse+0xa0>
     4f8:	88 23       	and	r24, r24
     4fa:	4a f0       	brmi	.+18     	; 0x50e <__mulsf3_pse+0x7a>
     4fc:	ee 0f       	add	r30, r30
     4fe:	ff 1f       	adc	r31, r31
     500:	bb 1f       	adc	r27, r27
     502:	66 1f       	adc	r22, r22
     504:	77 1f       	adc	r23, r23
     506:	88 1f       	adc	r24, r24
     508:	91 50       	subi	r25, 0x01	; 1
     50a:	50 40       	sbci	r21, 0x00	; 0
     50c:	a9 f7       	brne	.-22     	; 0x4f8 <__mulsf3_pse+0x64>
     50e:	9e 3f       	cpi	r25, 0xFE	; 254
     510:	51 05       	cpc	r21, r1
     512:	80 f0       	brcs	.+32     	; 0x534 <__mulsf3_pse+0xa0>
     514:	0c 94 a1 02 	jmp	0x542	; 0x542 <__fp_inf>
     518:	0c 94 ec 02 	jmp	0x5d8	; 0x5d8 <__fp_szero>
     51c:	5f 3f       	cpi	r21, 0xFF	; 255
     51e:	e4 f3       	brlt	.-8      	; 0x518 <__mulsf3_pse+0x84>
     520:	98 3e       	cpi	r25, 0xE8	; 232
     522:	d4 f3       	brlt	.-12     	; 0x518 <__mulsf3_pse+0x84>
     524:	86 95       	lsr	r24
     526:	77 95       	ror	r23
     528:	67 95       	ror	r22
     52a:	b7 95       	ror	r27
     52c:	f7 95       	ror	r31
     52e:	e7 95       	ror	r30
     530:	9f 5f       	subi	r25, 0xFF	; 255
     532:	c1 f7       	brne	.-16     	; 0x524 <__mulsf3_pse+0x90>
     534:	fe 2b       	or	r31, r30
     536:	88 0f       	add	r24, r24
     538:	91 1d       	adc	r25, r1
     53a:	96 95       	lsr	r25
     53c:	87 95       	ror	r24
     53e:	97 f9       	bld	r25, 7
     540:	08 95       	ret

00000542 <__fp_inf>:
     542:	97 f9       	bld	r25, 7
     544:	9f 67       	ori	r25, 0x7F	; 127
     546:	80 e8       	ldi	r24, 0x80	; 128
     548:	70 e0       	ldi	r23, 0x00	; 0
     54a:	60 e0       	ldi	r22, 0x00	; 0
     54c:	08 95       	ret

0000054e <__fp_nan>:
     54e:	9f ef       	ldi	r25, 0xFF	; 255
     550:	80 ec       	ldi	r24, 0xC0	; 192
     552:	08 95       	ret

00000554 <__fp_pscA>:
     554:	00 24       	eor	r0, r0
     556:	0a 94       	dec	r0
     558:	16 16       	cp	r1, r22
     55a:	17 06       	cpc	r1, r23
     55c:	18 06       	cpc	r1, r24
     55e:	09 06       	cpc	r0, r25
     560:	08 95       	ret

00000562 <__fp_pscB>:
     562:	00 24       	eor	r0, r0
     564:	0a 94       	dec	r0
     566:	12 16       	cp	r1, r18
     568:	13 06       	cpc	r1, r19
     56a:	14 06       	cpc	r1, r20
     56c:	05 06       	cpc	r0, r21
     56e:	08 95       	ret

00000570 <__fp_round>:
     570:	09 2e       	mov	r0, r25
     572:	03 94       	inc	r0
     574:	00 0c       	add	r0, r0
     576:	11 f4       	brne	.+4      	; 0x57c <__fp_round+0xc>
     578:	88 23       	and	r24, r24
     57a:	52 f0       	brmi	.+20     	; 0x590 <__fp_round+0x20>
     57c:	bb 0f       	add	r27, r27
     57e:	40 f4       	brcc	.+16     	; 0x590 <__fp_round+0x20>
     580:	bf 2b       	or	r27, r31
     582:	11 f4       	brne	.+4      	; 0x588 <__fp_round+0x18>
     584:	60 ff       	sbrs	r22, 0
     586:	04 c0       	rjmp	.+8      	; 0x590 <__fp_round+0x20>
     588:	6f 5f       	subi	r22, 0xFF	; 255
     58a:	7f 4f       	sbci	r23, 0xFF	; 255
     58c:	8f 4f       	sbci	r24, 0xFF	; 255
     58e:	9f 4f       	sbci	r25, 0xFF	; 255
     590:	08 95       	ret

00000592 <__fp_split3>:
     592:	57 fd       	sbrc	r21, 7
     594:	90 58       	subi	r25, 0x80	; 128
     596:	44 0f       	add	r20, r20
     598:	55 1f       	adc	r21, r21
     59a:	59 f0       	breq	.+22     	; 0x5b2 <__fp_splitA+0x10>
     59c:	5f 3f       	cpi	r21, 0xFF	; 255
     59e:	71 f0       	breq	.+28     	; 0x5bc <__fp_splitA+0x1a>
     5a0:	47 95       	ror	r20

000005a2 <__fp_splitA>:
     5a2:	88 0f       	add	r24, r24
     5a4:	97 fb       	bst	r25, 7
     5a6:	99 1f       	adc	r25, r25
     5a8:	61 f0       	breq	.+24     	; 0x5c2 <__fp_splitA+0x20>
     5aa:	9f 3f       	cpi	r25, 0xFF	; 255
     5ac:	79 f0       	breq	.+30     	; 0x5cc <__fp_splitA+0x2a>
     5ae:	87 95       	ror	r24
     5b0:	08 95       	ret
     5b2:	12 16       	cp	r1, r18
     5b4:	13 06       	cpc	r1, r19
     5b6:	14 06       	cpc	r1, r20
     5b8:	55 1f       	adc	r21, r21
     5ba:	f2 cf       	rjmp	.-28     	; 0x5a0 <__fp_split3+0xe>
     5bc:	46 95       	lsr	r20
     5be:	f1 df       	rcall	.-30     	; 0x5a2 <__fp_splitA>
     5c0:	08 c0       	rjmp	.+16     	; 0x5d2 <__fp_splitA+0x30>
     5c2:	16 16       	cp	r1, r22
     5c4:	17 06       	cpc	r1, r23
     5c6:	18 06       	cpc	r1, r24
     5c8:	99 1f       	adc	r25, r25
     5ca:	f1 cf       	rjmp	.-30     	; 0x5ae <__fp_splitA+0xc>
     5cc:	86 95       	lsr	r24
     5ce:	71 05       	cpc	r23, r1
     5d0:	61 05       	cpc	r22, r1
     5d2:	08 94       	sec
     5d4:	08 95       	ret

000005d6 <__fp_zero>:
     5d6:	e8 94       	clt

000005d8 <__fp_szero>:
     5d8:	bb 27       	eor	r27, r27
     5da:	66 27       	eor	r22, r22
     5dc:	77 27       	eor	r23, r23
     5de:	cb 01       	movw	r24, r22
     5e0:	97 f9       	bld	r25, 7
     5e2:	08 95       	ret

000005e4 <vfprintf>:
     5e4:	a0 e1       	ldi	r26, 0x10	; 16
     5e6:	b0 e0       	ldi	r27, 0x00	; 0
     5e8:	e8 ef       	ldi	r30, 0xF8	; 248
     5ea:	f2 e0       	ldi	r31, 0x02	; 2
     5ec:	0c 94 91 06 	jmp	0xd22	; 0xd22 <__prologue_saves__>
     5f0:	7c 01       	movw	r14, r24
     5f2:	1b 01       	movw	r2, r22
     5f4:	6a 01       	movw	r12, r20
     5f6:	fc 01       	movw	r30, r24
     5f8:	17 82       	std	Z+7, r1	; 0x07
     5fa:	16 82       	std	Z+6, r1	; 0x06
     5fc:	83 81       	ldd	r24, Z+3	; 0x03
     5fe:	81 ff       	sbrs	r24, 1
     600:	44 c3       	rjmp	.+1672   	; 0xc8a <__stack+0x38b>
     602:	9e 01       	movw	r18, r28
     604:	2f 5f       	subi	r18, 0xFF	; 255
     606:	3f 4f       	sbci	r19, 0xFF	; 255
     608:	39 01       	movw	r6, r18
     60a:	f7 01       	movw	r30, r14
     60c:	93 81       	ldd	r25, Z+3	; 0x03
     60e:	f1 01       	movw	r30, r2
     610:	93 fd       	sbrc	r25, 3
     612:	85 91       	lpm	r24, Z+
     614:	93 ff       	sbrs	r25, 3
     616:	81 91       	ld	r24, Z+
     618:	1f 01       	movw	r2, r30
     61a:	88 23       	and	r24, r24
     61c:	09 f4       	brne	.+2      	; 0x620 <vfprintf+0x3c>
     61e:	31 c3       	rjmp	.+1634   	; 0xc82 <__stack+0x383>
     620:	85 32       	cpi	r24, 0x25	; 37
     622:	39 f4       	brne	.+14     	; 0x632 <vfprintf+0x4e>
     624:	93 fd       	sbrc	r25, 3
     626:	85 91       	lpm	r24, Z+
     628:	93 ff       	sbrs	r25, 3
     62a:	81 91       	ld	r24, Z+
     62c:	1f 01       	movw	r2, r30
     62e:	85 32       	cpi	r24, 0x25	; 37
     630:	39 f4       	brne	.+14     	; 0x640 <vfprintf+0x5c>
     632:	b7 01       	movw	r22, r14
     634:	90 e0       	ldi	r25, 0x00	; 0
     636:	0e 94 d6 07 	call	0xfac	; 0xfac <fputc>
     63a:	56 01       	movw	r10, r12
     63c:	65 01       	movw	r12, r10
     63e:	e5 cf       	rjmp	.-54     	; 0x60a <vfprintf+0x26>
     640:	10 e0       	ldi	r17, 0x00	; 0
     642:	51 2c       	mov	r5, r1
     644:	91 2c       	mov	r9, r1
     646:	ff e1       	ldi	r31, 0x1F	; 31
     648:	f9 15       	cp	r31, r9
     64a:	d8 f0       	brcs	.+54     	; 0x682 <vfprintf+0x9e>
     64c:	8b 32       	cpi	r24, 0x2B	; 43
     64e:	79 f0       	breq	.+30     	; 0x66e <vfprintf+0x8a>
     650:	38 f4       	brcc	.+14     	; 0x660 <vfprintf+0x7c>
     652:	80 32       	cpi	r24, 0x20	; 32
     654:	79 f0       	breq	.+30     	; 0x674 <vfprintf+0x90>
     656:	83 32       	cpi	r24, 0x23	; 35
     658:	a1 f4       	brne	.+40     	; 0x682 <vfprintf+0x9e>
     65a:	f9 2d       	mov	r31, r9
     65c:	f0 61       	ori	r31, 0x10	; 16
     65e:	2e c0       	rjmp	.+92     	; 0x6bc <vfprintf+0xd8>
     660:	8d 32       	cpi	r24, 0x2D	; 45
     662:	61 f0       	breq	.+24     	; 0x67c <vfprintf+0x98>
     664:	80 33       	cpi	r24, 0x30	; 48
     666:	69 f4       	brne	.+26     	; 0x682 <vfprintf+0x9e>
     668:	29 2d       	mov	r18, r9
     66a:	21 60       	ori	r18, 0x01	; 1
     66c:	2d c0       	rjmp	.+90     	; 0x6c8 <vfprintf+0xe4>
     66e:	39 2d       	mov	r19, r9
     670:	32 60       	ori	r19, 0x02	; 2
     672:	93 2e       	mov	r9, r19
     674:	89 2d       	mov	r24, r9
     676:	84 60       	ori	r24, 0x04	; 4
     678:	98 2e       	mov	r9, r24
     67a:	2a c0       	rjmp	.+84     	; 0x6d0 <vfprintf+0xec>
     67c:	e9 2d       	mov	r30, r9
     67e:	e8 60       	ori	r30, 0x08	; 8
     680:	15 c0       	rjmp	.+42     	; 0x6ac <vfprintf+0xc8>
     682:	97 fc       	sbrc	r9, 7
     684:	2d c0       	rjmp	.+90     	; 0x6e0 <vfprintf+0xfc>
     686:	20 ed       	ldi	r18, 0xD0	; 208
     688:	28 0f       	add	r18, r24
     68a:	2a 30       	cpi	r18, 0x0A	; 10
     68c:	88 f4       	brcc	.+34     	; 0x6b0 <vfprintf+0xcc>
     68e:	96 fe       	sbrs	r9, 6
     690:	06 c0       	rjmp	.+12     	; 0x69e <vfprintf+0xba>
     692:	3a e0       	ldi	r19, 0x0A	; 10
     694:	13 9f       	mul	r17, r19
     696:	20 0d       	add	r18, r0
     698:	11 24       	eor	r1, r1
     69a:	12 2f       	mov	r17, r18
     69c:	19 c0       	rjmp	.+50     	; 0x6d0 <vfprintf+0xec>
     69e:	8a e0       	ldi	r24, 0x0A	; 10
     6a0:	58 9e       	mul	r5, r24
     6a2:	20 0d       	add	r18, r0
     6a4:	11 24       	eor	r1, r1
     6a6:	52 2e       	mov	r5, r18
     6a8:	e9 2d       	mov	r30, r9
     6aa:	e0 62       	ori	r30, 0x20	; 32
     6ac:	9e 2e       	mov	r9, r30
     6ae:	10 c0       	rjmp	.+32     	; 0x6d0 <vfprintf+0xec>
     6b0:	8e 32       	cpi	r24, 0x2E	; 46
     6b2:	31 f4       	brne	.+12     	; 0x6c0 <vfprintf+0xdc>
     6b4:	96 fc       	sbrc	r9, 6
     6b6:	e5 c2       	rjmp	.+1482   	; 0xc82 <__stack+0x383>
     6b8:	f9 2d       	mov	r31, r9
     6ba:	f0 64       	ori	r31, 0x40	; 64
     6bc:	9f 2e       	mov	r9, r31
     6be:	08 c0       	rjmp	.+16     	; 0x6d0 <vfprintf+0xec>
     6c0:	8c 36       	cpi	r24, 0x6C	; 108
     6c2:	21 f4       	brne	.+8      	; 0x6cc <vfprintf+0xe8>
     6c4:	29 2d       	mov	r18, r9
     6c6:	20 68       	ori	r18, 0x80	; 128
     6c8:	92 2e       	mov	r9, r18
     6ca:	02 c0       	rjmp	.+4      	; 0x6d0 <vfprintf+0xec>
     6cc:	88 36       	cpi	r24, 0x68	; 104
     6ce:	41 f4       	brne	.+16     	; 0x6e0 <vfprintf+0xfc>
     6d0:	f1 01       	movw	r30, r2
     6d2:	93 fd       	sbrc	r25, 3
     6d4:	85 91       	lpm	r24, Z+
     6d6:	93 ff       	sbrs	r25, 3
     6d8:	81 91       	ld	r24, Z+
     6da:	1f 01       	movw	r2, r30
     6dc:	81 11       	cpse	r24, r1
     6de:	b3 cf       	rjmp	.-154    	; 0x646 <vfprintf+0x62>
     6e0:	9b eb       	ldi	r25, 0xBB	; 187
     6e2:	98 0f       	add	r25, r24
     6e4:	93 30       	cpi	r25, 0x03	; 3
     6e6:	20 f4       	brcc	.+8      	; 0x6f0 <vfprintf+0x10c>
     6e8:	99 2d       	mov	r25, r9
     6ea:	90 61       	ori	r25, 0x10	; 16
     6ec:	80 5e       	subi	r24, 0xE0	; 224
     6ee:	07 c0       	rjmp	.+14     	; 0x6fe <vfprintf+0x11a>
     6f0:	9b e9       	ldi	r25, 0x9B	; 155
     6f2:	98 0f       	add	r25, r24
     6f4:	93 30       	cpi	r25, 0x03	; 3
     6f6:	08 f0       	brcs	.+2      	; 0x6fa <vfprintf+0x116>
     6f8:	66 c1       	rjmp	.+716    	; 0x9c6 <__stack+0xc7>
     6fa:	99 2d       	mov	r25, r9
     6fc:	9f 7e       	andi	r25, 0xEF	; 239
     6fe:	96 ff       	sbrs	r25, 6
     700:	16 e0       	ldi	r17, 0x06	; 6
     702:	9f 73       	andi	r25, 0x3F	; 63
     704:	99 2e       	mov	r9, r25
     706:	85 36       	cpi	r24, 0x65	; 101
     708:	19 f4       	brne	.+6      	; 0x710 <vfprintf+0x12c>
     70a:	90 64       	ori	r25, 0x40	; 64
     70c:	99 2e       	mov	r9, r25
     70e:	08 c0       	rjmp	.+16     	; 0x720 <vfprintf+0x13c>
     710:	86 36       	cpi	r24, 0x66	; 102
     712:	21 f4       	brne	.+8      	; 0x71c <vfprintf+0x138>
     714:	39 2f       	mov	r19, r25
     716:	30 68       	ori	r19, 0x80	; 128
     718:	93 2e       	mov	r9, r19
     71a:	02 c0       	rjmp	.+4      	; 0x720 <vfprintf+0x13c>
     71c:	11 11       	cpse	r17, r1
     71e:	11 50       	subi	r17, 0x01	; 1
     720:	97 fe       	sbrs	r9, 7
     722:	07 c0       	rjmp	.+14     	; 0x732 <vfprintf+0x14e>
     724:	1c 33       	cpi	r17, 0x3C	; 60
     726:	50 f4       	brcc	.+20     	; 0x73c <vfprintf+0x158>
     728:	44 24       	eor	r4, r4
     72a:	43 94       	inc	r4
     72c:	41 0e       	add	r4, r17
     72e:	27 e0       	ldi	r18, 0x07	; 7
     730:	0b c0       	rjmp	.+22     	; 0x748 <vfprintf+0x164>
     732:	18 30       	cpi	r17, 0x08	; 8
     734:	38 f0       	brcs	.+14     	; 0x744 <vfprintf+0x160>
     736:	27 e0       	ldi	r18, 0x07	; 7
     738:	17 e0       	ldi	r17, 0x07	; 7
     73a:	05 c0       	rjmp	.+10     	; 0x746 <vfprintf+0x162>
     73c:	27 e0       	ldi	r18, 0x07	; 7
     73e:	9c e3       	ldi	r25, 0x3C	; 60
     740:	49 2e       	mov	r4, r25
     742:	02 c0       	rjmp	.+4      	; 0x748 <vfprintf+0x164>
     744:	21 2f       	mov	r18, r17
     746:	41 2c       	mov	r4, r1
     748:	56 01       	movw	r10, r12
     74a:	84 e0       	ldi	r24, 0x04	; 4
     74c:	a8 0e       	add	r10, r24
     74e:	b1 1c       	adc	r11, r1
     750:	f6 01       	movw	r30, r12
     752:	60 81       	ld	r22, Z
     754:	71 81       	ldd	r23, Z+1	; 0x01
     756:	82 81       	ldd	r24, Z+2	; 0x02
     758:	93 81       	ldd	r25, Z+3	; 0x03
     75a:	04 2d       	mov	r16, r4
     75c:	a3 01       	movw	r20, r6
     75e:	0e 94 e8 06 	call	0xdd0	; 0xdd0 <__ftoa_engine>
     762:	6c 01       	movw	r12, r24
     764:	f9 81       	ldd	r31, Y+1	; 0x01
     766:	fc 87       	std	Y+12, r31	; 0x0c
     768:	f0 ff       	sbrs	r31, 0
     76a:	02 c0       	rjmp	.+4      	; 0x770 <vfprintf+0x18c>
     76c:	f3 ff       	sbrs	r31, 3
     76e:	06 c0       	rjmp	.+12     	; 0x77c <vfprintf+0x198>
     770:	91 fc       	sbrc	r9, 1
     772:	06 c0       	rjmp	.+12     	; 0x780 <vfprintf+0x19c>
     774:	92 fe       	sbrs	r9, 2
     776:	06 c0       	rjmp	.+12     	; 0x784 <vfprintf+0x1a0>
     778:	00 e2       	ldi	r16, 0x20	; 32
     77a:	05 c0       	rjmp	.+10     	; 0x786 <vfprintf+0x1a2>
     77c:	0d e2       	ldi	r16, 0x2D	; 45
     77e:	03 c0       	rjmp	.+6      	; 0x786 <vfprintf+0x1a2>
     780:	0b e2       	ldi	r16, 0x2B	; 43
     782:	01 c0       	rjmp	.+2      	; 0x786 <vfprintf+0x1a2>
     784:	00 e0       	ldi	r16, 0x00	; 0
     786:	8c 85       	ldd	r24, Y+12	; 0x0c
     788:	8c 70       	andi	r24, 0x0C	; 12
     78a:	19 f0       	breq	.+6      	; 0x792 <vfprintf+0x1ae>
     78c:	01 11       	cpse	r16, r1
     78e:	5a c2       	rjmp	.+1204   	; 0xc44 <__stack+0x345>
     790:	9b c2       	rjmp	.+1334   	; 0xcc8 <__stack+0x3c9>
     792:	97 fe       	sbrs	r9, 7
     794:	10 c0       	rjmp	.+32     	; 0x7b6 <vfprintf+0x1d2>
     796:	4c 0c       	add	r4, r12
     798:	fc 85       	ldd	r31, Y+12	; 0x0c
     79a:	f4 ff       	sbrs	r31, 4
     79c:	04 c0       	rjmp	.+8      	; 0x7a6 <vfprintf+0x1c2>
     79e:	8a 81       	ldd	r24, Y+2	; 0x02
     7a0:	81 33       	cpi	r24, 0x31	; 49
     7a2:	09 f4       	brne	.+2      	; 0x7a6 <vfprintf+0x1c2>
     7a4:	4a 94       	dec	r4
     7a6:	14 14       	cp	r1, r4
     7a8:	74 f5       	brge	.+92     	; 0x806 <vfprintf+0x222>
     7aa:	28 e0       	ldi	r18, 0x08	; 8
     7ac:	24 15       	cp	r18, r4
     7ae:	78 f5       	brcc	.+94     	; 0x80e <vfprintf+0x22a>
     7b0:	88 e0       	ldi	r24, 0x08	; 8
     7b2:	48 2e       	mov	r4, r24
     7b4:	2c c0       	rjmp	.+88     	; 0x80e <vfprintf+0x22a>
     7b6:	96 fc       	sbrc	r9, 6
     7b8:	2a c0       	rjmp	.+84     	; 0x80e <vfprintf+0x22a>
     7ba:	81 2f       	mov	r24, r17
     7bc:	90 e0       	ldi	r25, 0x00	; 0
     7be:	8c 15       	cp	r24, r12
     7c0:	9d 05       	cpc	r25, r13
     7c2:	9c f0       	brlt	.+38     	; 0x7ea <vfprintf+0x206>
     7c4:	3c ef       	ldi	r19, 0xFC	; 252
     7c6:	c3 16       	cp	r12, r19
     7c8:	3f ef       	ldi	r19, 0xFF	; 255
     7ca:	d3 06       	cpc	r13, r19
     7cc:	74 f0       	brlt	.+28     	; 0x7ea <vfprintf+0x206>
     7ce:	89 2d       	mov	r24, r9
     7d0:	80 68       	ori	r24, 0x80	; 128
     7d2:	98 2e       	mov	r9, r24
     7d4:	0a c0       	rjmp	.+20     	; 0x7ea <vfprintf+0x206>
     7d6:	e2 e0       	ldi	r30, 0x02	; 2
     7d8:	f0 e0       	ldi	r31, 0x00	; 0
     7da:	ec 0f       	add	r30, r28
     7dc:	fd 1f       	adc	r31, r29
     7de:	e1 0f       	add	r30, r17
     7e0:	f1 1d       	adc	r31, r1
     7e2:	80 81       	ld	r24, Z
     7e4:	80 33       	cpi	r24, 0x30	; 48
     7e6:	19 f4       	brne	.+6      	; 0x7ee <vfprintf+0x20a>
     7e8:	11 50       	subi	r17, 0x01	; 1
     7ea:	11 11       	cpse	r17, r1
     7ec:	f4 cf       	rjmp	.-24     	; 0x7d6 <vfprintf+0x1f2>
     7ee:	97 fe       	sbrs	r9, 7
     7f0:	0e c0       	rjmp	.+28     	; 0x80e <vfprintf+0x22a>
     7f2:	44 24       	eor	r4, r4
     7f4:	43 94       	inc	r4
     7f6:	41 0e       	add	r4, r17
     7f8:	81 2f       	mov	r24, r17
     7fa:	90 e0       	ldi	r25, 0x00	; 0
     7fc:	c8 16       	cp	r12, r24
     7fe:	d9 06       	cpc	r13, r25
     800:	2c f4       	brge	.+10     	; 0x80c <vfprintf+0x228>
     802:	1c 19       	sub	r17, r12
     804:	04 c0       	rjmp	.+8      	; 0x80e <vfprintf+0x22a>
     806:	44 24       	eor	r4, r4
     808:	43 94       	inc	r4
     80a:	01 c0       	rjmp	.+2      	; 0x80e <vfprintf+0x22a>
     80c:	10 e0       	ldi	r17, 0x00	; 0
     80e:	97 fe       	sbrs	r9, 7
     810:	06 c0       	rjmp	.+12     	; 0x81e <vfprintf+0x23a>
     812:	1c 14       	cp	r1, r12
     814:	1d 04       	cpc	r1, r13
     816:	34 f4       	brge	.+12     	; 0x824 <vfprintf+0x240>
     818:	c6 01       	movw	r24, r12
     81a:	01 96       	adiw	r24, 0x01	; 1
     81c:	05 c0       	rjmp	.+10     	; 0x828 <vfprintf+0x244>
     81e:	85 e0       	ldi	r24, 0x05	; 5
     820:	90 e0       	ldi	r25, 0x00	; 0
     822:	02 c0       	rjmp	.+4      	; 0x828 <vfprintf+0x244>
     824:	81 e0       	ldi	r24, 0x01	; 1
     826:	90 e0       	ldi	r25, 0x00	; 0
     828:	01 11       	cpse	r16, r1
     82a:	01 96       	adiw	r24, 0x01	; 1
     82c:	11 23       	and	r17, r17
     82e:	31 f0       	breq	.+12     	; 0x83c <vfprintf+0x258>
     830:	21 2f       	mov	r18, r17
     832:	30 e0       	ldi	r19, 0x00	; 0
     834:	2f 5f       	subi	r18, 0xFF	; 255
     836:	3f 4f       	sbci	r19, 0xFF	; 255
     838:	82 0f       	add	r24, r18
     83a:	93 1f       	adc	r25, r19
     83c:	25 2d       	mov	r18, r5
     83e:	30 e0       	ldi	r19, 0x00	; 0
     840:	82 17       	cp	r24, r18
     842:	93 07       	cpc	r25, r19
     844:	14 f4       	brge	.+4      	; 0x84a <vfprintf+0x266>
     846:	58 1a       	sub	r5, r24
     848:	01 c0       	rjmp	.+2      	; 0x84c <vfprintf+0x268>
     84a:	51 2c       	mov	r5, r1
     84c:	89 2d       	mov	r24, r9
     84e:	89 70       	andi	r24, 0x09	; 9
     850:	49 f4       	brne	.+18     	; 0x864 <vfprintf+0x280>
     852:	55 20       	and	r5, r5
     854:	39 f0       	breq	.+14     	; 0x864 <vfprintf+0x280>
     856:	b7 01       	movw	r22, r14
     858:	80 e2       	ldi	r24, 0x20	; 32
     85a:	90 e0       	ldi	r25, 0x00	; 0
     85c:	0e 94 d6 07 	call	0xfac	; 0xfac <fputc>
     860:	5a 94       	dec	r5
     862:	f7 cf       	rjmp	.-18     	; 0x852 <vfprintf+0x26e>
     864:	00 23       	and	r16, r16
     866:	29 f0       	breq	.+10     	; 0x872 <vfprintf+0x28e>
     868:	b7 01       	movw	r22, r14
     86a:	80 2f       	mov	r24, r16
     86c:	90 e0       	ldi	r25, 0x00	; 0
     86e:	0e 94 d6 07 	call	0xfac	; 0xfac <fputc>
     872:	93 fc       	sbrc	r9, 3
     874:	09 c0       	rjmp	.+18     	; 0x888 <vfprintf+0x2a4>
     876:	55 20       	and	r5, r5
     878:	39 f0       	breq	.+14     	; 0x888 <vfprintf+0x2a4>
     87a:	b7 01       	movw	r22, r14
     87c:	80 e3       	ldi	r24, 0x30	; 48
     87e:	90 e0       	ldi	r25, 0x00	; 0
     880:	0e 94 d6 07 	call	0xfac	; 0xfac <fputc>
     884:	5a 94       	dec	r5
     886:	f7 cf       	rjmp	.-18     	; 0x876 <vfprintf+0x292>
     888:	97 fe       	sbrs	r9, 7
     88a:	4c c0       	rjmp	.+152    	; 0x924 <__stack+0x25>
     88c:	46 01       	movw	r8, r12
     88e:	d7 fe       	sbrs	r13, 7
     890:	02 c0       	rjmp	.+4      	; 0x896 <vfprintf+0x2b2>
     892:	81 2c       	mov	r8, r1
     894:	91 2c       	mov	r9, r1
     896:	c6 01       	movw	r24, r12
     898:	88 19       	sub	r24, r8
     89a:	99 09       	sbc	r25, r9
     89c:	f3 01       	movw	r30, r6
     89e:	e8 0f       	add	r30, r24
     8a0:	f9 1f       	adc	r31, r25
     8a2:	fe 87       	std	Y+14, r31	; 0x0e
     8a4:	ed 87       	std	Y+13, r30	; 0x0d
     8a6:	96 01       	movw	r18, r12
     8a8:	24 19       	sub	r18, r4
     8aa:	31 09       	sbc	r19, r1
     8ac:	38 8b       	std	Y+16, r19	; 0x10
     8ae:	2f 87       	std	Y+15, r18	; 0x0f
     8b0:	01 2f       	mov	r16, r17
     8b2:	10 e0       	ldi	r17, 0x00	; 0
     8b4:	11 95       	neg	r17
     8b6:	01 95       	neg	r16
     8b8:	11 09       	sbc	r17, r1
     8ba:	3f ef       	ldi	r19, 0xFF	; 255
     8bc:	83 16       	cp	r8, r19
     8be:	93 06       	cpc	r9, r19
     8c0:	29 f4       	brne	.+10     	; 0x8cc <vfprintf+0x2e8>
     8c2:	b7 01       	movw	r22, r14
     8c4:	8e e2       	ldi	r24, 0x2E	; 46
     8c6:	90 e0       	ldi	r25, 0x00	; 0
     8c8:	0e 94 d6 07 	call	0xfac	; 0xfac <fputc>
     8cc:	c8 14       	cp	r12, r8
     8ce:	d9 04       	cpc	r13, r9
     8d0:	4c f0       	brlt	.+18     	; 0x8e4 <vfprintf+0x300>
     8d2:	8f 85       	ldd	r24, Y+15	; 0x0f
     8d4:	98 89       	ldd	r25, Y+16	; 0x10
     8d6:	88 15       	cp	r24, r8
     8d8:	99 05       	cpc	r25, r9
     8da:	24 f4       	brge	.+8      	; 0x8e4 <vfprintf+0x300>
     8dc:	ed 85       	ldd	r30, Y+13	; 0x0d
     8de:	fe 85       	ldd	r31, Y+14	; 0x0e
     8e0:	81 81       	ldd	r24, Z+1	; 0x01
     8e2:	01 c0       	rjmp	.+2      	; 0x8e6 <vfprintf+0x302>
     8e4:	80 e3       	ldi	r24, 0x30	; 48
     8e6:	f1 e0       	ldi	r31, 0x01	; 1
     8e8:	8f 1a       	sub	r8, r31
     8ea:	91 08       	sbc	r9, r1
     8ec:	2d 85       	ldd	r18, Y+13	; 0x0d
     8ee:	3e 85       	ldd	r19, Y+14	; 0x0e
     8f0:	2f 5f       	subi	r18, 0xFF	; 255
     8f2:	3f 4f       	sbci	r19, 0xFF	; 255
     8f4:	3e 87       	std	Y+14, r19	; 0x0e
     8f6:	2d 87       	std	Y+13, r18	; 0x0d
     8f8:	80 16       	cp	r8, r16
     8fa:	91 06       	cpc	r9, r17
     8fc:	2c f0       	brlt	.+10     	; 0x908 <__stack+0x9>
     8fe:	b7 01       	movw	r22, r14
     900:	90 e0       	ldi	r25, 0x00	; 0
     902:	0e 94 d6 07 	call	0xfac	; 0xfac <fputc>
     906:	d9 cf       	rjmp	.-78     	; 0x8ba <vfprintf+0x2d6>
     908:	c8 14       	cp	r12, r8
     90a:	d9 04       	cpc	r13, r9
     90c:	41 f4       	brne	.+16     	; 0x91e <__stack+0x1f>
     90e:	9a 81       	ldd	r25, Y+2	; 0x02
     910:	96 33       	cpi	r25, 0x36	; 54
     912:	20 f4       	brcc	.+8      	; 0x91c <__stack+0x1d>
     914:	95 33       	cpi	r25, 0x35	; 53
     916:	19 f4       	brne	.+6      	; 0x91e <__stack+0x1f>
     918:	3c 85       	ldd	r19, Y+12	; 0x0c
     91a:	34 ff       	sbrs	r19, 4
     91c:	81 e3       	ldi	r24, 0x31	; 49
     91e:	b7 01       	movw	r22, r14
     920:	90 e0       	ldi	r25, 0x00	; 0
     922:	4e c0       	rjmp	.+156    	; 0x9c0 <__stack+0xc1>
     924:	8a 81       	ldd	r24, Y+2	; 0x02
     926:	81 33       	cpi	r24, 0x31	; 49
     928:	19 f0       	breq	.+6      	; 0x930 <__stack+0x31>
     92a:	9c 85       	ldd	r25, Y+12	; 0x0c
     92c:	9f 7e       	andi	r25, 0xEF	; 239
     92e:	9c 87       	std	Y+12, r25	; 0x0c
     930:	b7 01       	movw	r22, r14
     932:	90 e0       	ldi	r25, 0x00	; 0
     934:	0e 94 d6 07 	call	0xfac	; 0xfac <fputc>
     938:	11 11       	cpse	r17, r1
     93a:	05 c0       	rjmp	.+10     	; 0x946 <__stack+0x47>
     93c:	94 fc       	sbrc	r9, 4
     93e:	18 c0       	rjmp	.+48     	; 0x970 <__stack+0x71>
     940:	85 e6       	ldi	r24, 0x65	; 101
     942:	90 e0       	ldi	r25, 0x00	; 0
     944:	17 c0       	rjmp	.+46     	; 0x974 <__stack+0x75>
     946:	b7 01       	movw	r22, r14
     948:	8e e2       	ldi	r24, 0x2E	; 46
     94a:	90 e0       	ldi	r25, 0x00	; 0
     94c:	0e 94 d6 07 	call	0xfac	; 0xfac <fputc>
     950:	1e 5f       	subi	r17, 0xFE	; 254
     952:	82 e0       	ldi	r24, 0x02	; 2
     954:	01 e0       	ldi	r16, 0x01	; 1
     956:	08 0f       	add	r16, r24
     958:	f3 01       	movw	r30, r6
     95a:	e8 0f       	add	r30, r24
     95c:	f1 1d       	adc	r31, r1
     95e:	80 81       	ld	r24, Z
     960:	b7 01       	movw	r22, r14
     962:	90 e0       	ldi	r25, 0x00	; 0
     964:	0e 94 d6 07 	call	0xfac	; 0xfac <fputc>
     968:	80 2f       	mov	r24, r16
     96a:	01 13       	cpse	r16, r17
     96c:	f3 cf       	rjmp	.-26     	; 0x954 <__stack+0x55>
     96e:	e6 cf       	rjmp	.-52     	; 0x93c <__stack+0x3d>
     970:	85 e4       	ldi	r24, 0x45	; 69
     972:	90 e0       	ldi	r25, 0x00	; 0
     974:	b7 01       	movw	r22, r14
     976:	0e 94 d6 07 	call	0xfac	; 0xfac <fputc>
     97a:	d7 fc       	sbrc	r13, 7
     97c:	06 c0       	rjmp	.+12     	; 0x98a <__stack+0x8b>
     97e:	c1 14       	cp	r12, r1
     980:	d1 04       	cpc	r13, r1
     982:	41 f4       	brne	.+16     	; 0x994 <__stack+0x95>
     984:	ec 85       	ldd	r30, Y+12	; 0x0c
     986:	e4 ff       	sbrs	r30, 4
     988:	05 c0       	rjmp	.+10     	; 0x994 <__stack+0x95>
     98a:	d1 94       	neg	r13
     98c:	c1 94       	neg	r12
     98e:	d1 08       	sbc	r13, r1
     990:	8d e2       	ldi	r24, 0x2D	; 45
     992:	01 c0       	rjmp	.+2      	; 0x996 <__stack+0x97>
     994:	8b e2       	ldi	r24, 0x2B	; 43
     996:	b7 01       	movw	r22, r14
     998:	90 e0       	ldi	r25, 0x00	; 0
     99a:	0e 94 d6 07 	call	0xfac	; 0xfac <fputc>
     99e:	80 e3       	ldi	r24, 0x30	; 48
     9a0:	2a e0       	ldi	r18, 0x0A	; 10
     9a2:	c2 16       	cp	r12, r18
     9a4:	d1 04       	cpc	r13, r1
     9a6:	2c f0       	brlt	.+10     	; 0x9b2 <__stack+0xb3>
     9a8:	8f 5f       	subi	r24, 0xFF	; 255
     9aa:	fa e0       	ldi	r31, 0x0A	; 10
     9ac:	cf 1a       	sub	r12, r31
     9ae:	d1 08       	sbc	r13, r1
     9b0:	f7 cf       	rjmp	.-18     	; 0x9a0 <__stack+0xa1>
     9b2:	b7 01       	movw	r22, r14
     9b4:	90 e0       	ldi	r25, 0x00	; 0
     9b6:	0e 94 d6 07 	call	0xfac	; 0xfac <fputc>
     9ba:	b7 01       	movw	r22, r14
     9bc:	c6 01       	movw	r24, r12
     9be:	c0 96       	adiw	r24, 0x30	; 48
     9c0:	0e 94 d6 07 	call	0xfac	; 0xfac <fputc>
     9c4:	54 c1       	rjmp	.+680    	; 0xc6e <__stack+0x36f>
     9c6:	83 36       	cpi	r24, 0x63	; 99
     9c8:	31 f0       	breq	.+12     	; 0x9d6 <__stack+0xd7>
     9ca:	83 37       	cpi	r24, 0x73	; 115
     9cc:	79 f0       	breq	.+30     	; 0x9ec <__stack+0xed>
     9ce:	83 35       	cpi	r24, 0x53	; 83
     9d0:	09 f0       	breq	.+2      	; 0x9d4 <__stack+0xd5>
     9d2:	56 c0       	rjmp	.+172    	; 0xa80 <__stack+0x181>
     9d4:	20 c0       	rjmp	.+64     	; 0xa16 <__stack+0x117>
     9d6:	56 01       	movw	r10, r12
     9d8:	32 e0       	ldi	r19, 0x02	; 2
     9da:	a3 0e       	add	r10, r19
     9dc:	b1 1c       	adc	r11, r1
     9de:	f6 01       	movw	r30, r12
     9e0:	80 81       	ld	r24, Z
     9e2:	89 83       	std	Y+1, r24	; 0x01
     9e4:	01 e0       	ldi	r16, 0x01	; 1
     9e6:	10 e0       	ldi	r17, 0x00	; 0
     9e8:	63 01       	movw	r12, r6
     9ea:	12 c0       	rjmp	.+36     	; 0xa10 <__stack+0x111>
     9ec:	56 01       	movw	r10, r12
     9ee:	f2 e0       	ldi	r31, 0x02	; 2
     9f0:	af 0e       	add	r10, r31
     9f2:	b1 1c       	adc	r11, r1
     9f4:	f6 01       	movw	r30, r12
     9f6:	c0 80       	ld	r12, Z
     9f8:	d1 80       	ldd	r13, Z+1	; 0x01
     9fa:	96 fe       	sbrs	r9, 6
     9fc:	03 c0       	rjmp	.+6      	; 0xa04 <__stack+0x105>
     9fe:	61 2f       	mov	r22, r17
     a00:	70 e0       	ldi	r23, 0x00	; 0
     a02:	02 c0       	rjmp	.+4      	; 0xa08 <__stack+0x109>
     a04:	6f ef       	ldi	r22, 0xFF	; 255
     a06:	7f ef       	ldi	r23, 0xFF	; 255
     a08:	c6 01       	movw	r24, r12
     a0a:	0e 94 cb 07 	call	0xf96	; 0xf96 <strnlen>
     a0e:	8c 01       	movw	r16, r24
     a10:	f9 2d       	mov	r31, r9
     a12:	ff 77       	andi	r31, 0x7F	; 127
     a14:	14 c0       	rjmp	.+40     	; 0xa3e <__stack+0x13f>
     a16:	56 01       	movw	r10, r12
     a18:	22 e0       	ldi	r18, 0x02	; 2
     a1a:	a2 0e       	add	r10, r18
     a1c:	b1 1c       	adc	r11, r1
     a1e:	f6 01       	movw	r30, r12
     a20:	c0 80       	ld	r12, Z
     a22:	d1 80       	ldd	r13, Z+1	; 0x01
     a24:	96 fe       	sbrs	r9, 6
     a26:	03 c0       	rjmp	.+6      	; 0xa2e <__stack+0x12f>
     a28:	61 2f       	mov	r22, r17
     a2a:	70 e0       	ldi	r23, 0x00	; 0
     a2c:	02 c0       	rjmp	.+4      	; 0xa32 <__stack+0x133>
     a2e:	6f ef       	ldi	r22, 0xFF	; 255
     a30:	7f ef       	ldi	r23, 0xFF	; 255
     a32:	c6 01       	movw	r24, r12
     a34:	0e 94 c0 07 	call	0xf80	; 0xf80 <strnlen_P>
     a38:	8c 01       	movw	r16, r24
     a3a:	f9 2d       	mov	r31, r9
     a3c:	f0 68       	ori	r31, 0x80	; 128
     a3e:	9f 2e       	mov	r9, r31
     a40:	f3 fd       	sbrc	r31, 3
     a42:	1a c0       	rjmp	.+52     	; 0xa78 <__stack+0x179>
     a44:	85 2d       	mov	r24, r5
     a46:	90 e0       	ldi	r25, 0x00	; 0
     a48:	08 17       	cp	r16, r24
     a4a:	19 07       	cpc	r17, r25
     a4c:	a8 f4       	brcc	.+42     	; 0xa78 <__stack+0x179>
     a4e:	b7 01       	movw	r22, r14
     a50:	80 e2       	ldi	r24, 0x20	; 32
     a52:	90 e0       	ldi	r25, 0x00	; 0
     a54:	0e 94 d6 07 	call	0xfac	; 0xfac <fputc>
     a58:	5a 94       	dec	r5
     a5a:	f4 cf       	rjmp	.-24     	; 0xa44 <__stack+0x145>
     a5c:	f6 01       	movw	r30, r12
     a5e:	97 fc       	sbrc	r9, 7
     a60:	85 91       	lpm	r24, Z+
     a62:	97 fe       	sbrs	r9, 7
     a64:	81 91       	ld	r24, Z+
     a66:	6f 01       	movw	r12, r30
     a68:	b7 01       	movw	r22, r14
     a6a:	90 e0       	ldi	r25, 0x00	; 0
     a6c:	0e 94 d6 07 	call	0xfac	; 0xfac <fputc>
     a70:	51 10       	cpse	r5, r1
     a72:	5a 94       	dec	r5
     a74:	01 50       	subi	r16, 0x01	; 1
     a76:	11 09       	sbc	r17, r1
     a78:	01 15       	cp	r16, r1
     a7a:	11 05       	cpc	r17, r1
     a7c:	79 f7       	brne	.-34     	; 0xa5c <__stack+0x15d>
     a7e:	f7 c0       	rjmp	.+494    	; 0xc6e <__stack+0x36f>
     a80:	84 36       	cpi	r24, 0x64	; 100
     a82:	11 f0       	breq	.+4      	; 0xa88 <__stack+0x189>
     a84:	89 36       	cpi	r24, 0x69	; 105
     a86:	61 f5       	brne	.+88     	; 0xae0 <__stack+0x1e1>
     a88:	56 01       	movw	r10, r12
     a8a:	97 fe       	sbrs	r9, 7
     a8c:	09 c0       	rjmp	.+18     	; 0xaa0 <__stack+0x1a1>
     a8e:	24 e0       	ldi	r18, 0x04	; 4
     a90:	a2 0e       	add	r10, r18
     a92:	b1 1c       	adc	r11, r1
     a94:	f6 01       	movw	r30, r12
     a96:	60 81       	ld	r22, Z
     a98:	71 81       	ldd	r23, Z+1	; 0x01
     a9a:	82 81       	ldd	r24, Z+2	; 0x02
     a9c:	93 81       	ldd	r25, Z+3	; 0x03
     a9e:	0a c0       	rjmp	.+20     	; 0xab4 <__stack+0x1b5>
     aa0:	f2 e0       	ldi	r31, 0x02	; 2
     aa2:	af 0e       	add	r10, r31
     aa4:	b1 1c       	adc	r11, r1
     aa6:	f6 01       	movw	r30, r12
     aa8:	60 81       	ld	r22, Z
     aaa:	71 81       	ldd	r23, Z+1	; 0x01
     aac:	07 2e       	mov	r0, r23
     aae:	00 0c       	add	r0, r0
     ab0:	88 0b       	sbc	r24, r24
     ab2:	99 0b       	sbc	r25, r25
     ab4:	f9 2d       	mov	r31, r9
     ab6:	ff 76       	andi	r31, 0x6F	; 111
     ab8:	9f 2e       	mov	r9, r31
     aba:	97 ff       	sbrs	r25, 7
     abc:	09 c0       	rjmp	.+18     	; 0xad0 <__stack+0x1d1>
     abe:	90 95       	com	r25
     ac0:	80 95       	com	r24
     ac2:	70 95       	com	r23
     ac4:	61 95       	neg	r22
     ac6:	7f 4f       	sbci	r23, 0xFF	; 255
     ac8:	8f 4f       	sbci	r24, 0xFF	; 255
     aca:	9f 4f       	sbci	r25, 0xFF	; 255
     acc:	f0 68       	ori	r31, 0x80	; 128
     ace:	9f 2e       	mov	r9, r31
     ad0:	2a e0       	ldi	r18, 0x0A	; 10
     ad2:	30 e0       	ldi	r19, 0x00	; 0
     ad4:	a3 01       	movw	r20, r6
     ad6:	0e 94 12 08 	call	0x1024	; 0x1024 <__ultoa_invert>
     ada:	c8 2e       	mov	r12, r24
     adc:	c6 18       	sub	r12, r6
     ade:	3f c0       	rjmp	.+126    	; 0xb5e <__stack+0x25f>
     ae0:	09 2d       	mov	r16, r9
     ae2:	85 37       	cpi	r24, 0x75	; 117
     ae4:	21 f4       	brne	.+8      	; 0xaee <__stack+0x1ef>
     ae6:	0f 7e       	andi	r16, 0xEF	; 239
     ae8:	2a e0       	ldi	r18, 0x0A	; 10
     aea:	30 e0       	ldi	r19, 0x00	; 0
     aec:	1d c0       	rjmp	.+58     	; 0xb28 <__stack+0x229>
     aee:	09 7f       	andi	r16, 0xF9	; 249
     af0:	8f 36       	cpi	r24, 0x6F	; 111
     af2:	91 f0       	breq	.+36     	; 0xb18 <__stack+0x219>
     af4:	18 f4       	brcc	.+6      	; 0xafc <__stack+0x1fd>
     af6:	88 35       	cpi	r24, 0x58	; 88
     af8:	59 f0       	breq	.+22     	; 0xb10 <__stack+0x211>
     afa:	c3 c0       	rjmp	.+390    	; 0xc82 <__stack+0x383>
     afc:	80 37       	cpi	r24, 0x70	; 112
     afe:	19 f0       	breq	.+6      	; 0xb06 <__stack+0x207>
     b00:	88 37       	cpi	r24, 0x78	; 120
     b02:	11 f0       	breq	.+4      	; 0xb08 <__stack+0x209>
     b04:	be c0       	rjmp	.+380    	; 0xc82 <__stack+0x383>
     b06:	00 61       	ori	r16, 0x10	; 16
     b08:	04 ff       	sbrs	r16, 4
     b0a:	09 c0       	rjmp	.+18     	; 0xb1e <__stack+0x21f>
     b0c:	04 60       	ori	r16, 0x04	; 4
     b0e:	07 c0       	rjmp	.+14     	; 0xb1e <__stack+0x21f>
     b10:	94 fe       	sbrs	r9, 4
     b12:	08 c0       	rjmp	.+16     	; 0xb24 <__stack+0x225>
     b14:	06 60       	ori	r16, 0x06	; 6
     b16:	06 c0       	rjmp	.+12     	; 0xb24 <__stack+0x225>
     b18:	28 e0       	ldi	r18, 0x08	; 8
     b1a:	30 e0       	ldi	r19, 0x00	; 0
     b1c:	05 c0       	rjmp	.+10     	; 0xb28 <__stack+0x229>
     b1e:	20 e1       	ldi	r18, 0x10	; 16
     b20:	30 e0       	ldi	r19, 0x00	; 0
     b22:	02 c0       	rjmp	.+4      	; 0xb28 <__stack+0x229>
     b24:	20 e1       	ldi	r18, 0x10	; 16
     b26:	32 e0       	ldi	r19, 0x02	; 2
     b28:	56 01       	movw	r10, r12
     b2a:	07 ff       	sbrs	r16, 7
     b2c:	09 c0       	rjmp	.+18     	; 0xb40 <__stack+0x241>
     b2e:	84 e0       	ldi	r24, 0x04	; 4
     b30:	a8 0e       	add	r10, r24
     b32:	b1 1c       	adc	r11, r1
     b34:	f6 01       	movw	r30, r12
     b36:	60 81       	ld	r22, Z
     b38:	71 81       	ldd	r23, Z+1	; 0x01
     b3a:	82 81       	ldd	r24, Z+2	; 0x02
     b3c:	93 81       	ldd	r25, Z+3	; 0x03
     b3e:	08 c0       	rjmp	.+16     	; 0xb50 <__stack+0x251>
     b40:	f2 e0       	ldi	r31, 0x02	; 2
     b42:	af 0e       	add	r10, r31
     b44:	b1 1c       	adc	r11, r1
     b46:	f6 01       	movw	r30, r12
     b48:	60 81       	ld	r22, Z
     b4a:	71 81       	ldd	r23, Z+1	; 0x01
     b4c:	80 e0       	ldi	r24, 0x00	; 0
     b4e:	90 e0       	ldi	r25, 0x00	; 0
     b50:	a3 01       	movw	r20, r6
     b52:	0e 94 12 08 	call	0x1024	; 0x1024 <__ultoa_invert>
     b56:	c8 2e       	mov	r12, r24
     b58:	c6 18       	sub	r12, r6
     b5a:	0f 77       	andi	r16, 0x7F	; 127
     b5c:	90 2e       	mov	r9, r16
     b5e:	96 fe       	sbrs	r9, 6
     b60:	0b c0       	rjmp	.+22     	; 0xb78 <__stack+0x279>
     b62:	09 2d       	mov	r16, r9
     b64:	0e 7f       	andi	r16, 0xFE	; 254
     b66:	c1 16       	cp	r12, r17
     b68:	50 f4       	brcc	.+20     	; 0xb7e <__stack+0x27f>
     b6a:	94 fe       	sbrs	r9, 4
     b6c:	0a c0       	rjmp	.+20     	; 0xb82 <__stack+0x283>
     b6e:	92 fc       	sbrc	r9, 2
     b70:	08 c0       	rjmp	.+16     	; 0xb82 <__stack+0x283>
     b72:	09 2d       	mov	r16, r9
     b74:	0e 7e       	andi	r16, 0xEE	; 238
     b76:	05 c0       	rjmp	.+10     	; 0xb82 <__stack+0x283>
     b78:	dc 2c       	mov	r13, r12
     b7a:	09 2d       	mov	r16, r9
     b7c:	03 c0       	rjmp	.+6      	; 0xb84 <__stack+0x285>
     b7e:	dc 2c       	mov	r13, r12
     b80:	01 c0       	rjmp	.+2      	; 0xb84 <__stack+0x285>
     b82:	d1 2e       	mov	r13, r17
     b84:	04 ff       	sbrs	r16, 4
     b86:	0d c0       	rjmp	.+26     	; 0xba2 <__stack+0x2a3>
     b88:	fe 01       	movw	r30, r28
     b8a:	ec 0d       	add	r30, r12
     b8c:	f1 1d       	adc	r31, r1
     b8e:	80 81       	ld	r24, Z
     b90:	80 33       	cpi	r24, 0x30	; 48
     b92:	11 f4       	brne	.+4      	; 0xb98 <__stack+0x299>
     b94:	09 7e       	andi	r16, 0xE9	; 233
     b96:	09 c0       	rjmp	.+18     	; 0xbaa <__stack+0x2ab>
     b98:	02 ff       	sbrs	r16, 2
     b9a:	06 c0       	rjmp	.+12     	; 0xba8 <__stack+0x2a9>
     b9c:	d3 94       	inc	r13
     b9e:	d3 94       	inc	r13
     ba0:	04 c0       	rjmp	.+8      	; 0xbaa <__stack+0x2ab>
     ba2:	80 2f       	mov	r24, r16
     ba4:	86 78       	andi	r24, 0x86	; 134
     ba6:	09 f0       	breq	.+2      	; 0xbaa <__stack+0x2ab>
     ba8:	d3 94       	inc	r13
     baa:	03 fd       	sbrc	r16, 3
     bac:	11 c0       	rjmp	.+34     	; 0xbd0 <__stack+0x2d1>
     bae:	00 ff       	sbrs	r16, 0
     bb0:	06 c0       	rjmp	.+12     	; 0xbbe <__stack+0x2bf>
     bb2:	1c 2d       	mov	r17, r12
     bb4:	d5 14       	cp	r13, r5
     bb6:	80 f4       	brcc	.+32     	; 0xbd8 <__stack+0x2d9>
     bb8:	15 0d       	add	r17, r5
     bba:	1d 19       	sub	r17, r13
     bbc:	0d c0       	rjmp	.+26     	; 0xbd8 <__stack+0x2d9>
     bbe:	d5 14       	cp	r13, r5
     bc0:	58 f4       	brcc	.+22     	; 0xbd8 <__stack+0x2d9>
     bc2:	b7 01       	movw	r22, r14
     bc4:	80 e2       	ldi	r24, 0x20	; 32
     bc6:	90 e0       	ldi	r25, 0x00	; 0
     bc8:	0e 94 d6 07 	call	0xfac	; 0xfac <fputc>
     bcc:	d3 94       	inc	r13
     bce:	f7 cf       	rjmp	.-18     	; 0xbbe <__stack+0x2bf>
     bd0:	d5 14       	cp	r13, r5
     bd2:	10 f4       	brcc	.+4      	; 0xbd8 <__stack+0x2d9>
     bd4:	5d 18       	sub	r5, r13
     bd6:	01 c0       	rjmp	.+2      	; 0xbda <__stack+0x2db>
     bd8:	51 2c       	mov	r5, r1
     bda:	04 ff       	sbrs	r16, 4
     bdc:	10 c0       	rjmp	.+32     	; 0xbfe <__stack+0x2ff>
     bde:	b7 01       	movw	r22, r14
     be0:	80 e3       	ldi	r24, 0x30	; 48
     be2:	90 e0       	ldi	r25, 0x00	; 0
     be4:	0e 94 d6 07 	call	0xfac	; 0xfac <fputc>
     be8:	02 ff       	sbrs	r16, 2
     bea:	17 c0       	rjmp	.+46     	; 0xc1a <__stack+0x31b>
     bec:	01 fd       	sbrc	r16, 1
     bee:	03 c0       	rjmp	.+6      	; 0xbf6 <__stack+0x2f7>
     bf0:	88 e7       	ldi	r24, 0x78	; 120
     bf2:	90 e0       	ldi	r25, 0x00	; 0
     bf4:	02 c0       	rjmp	.+4      	; 0xbfa <__stack+0x2fb>
     bf6:	88 e5       	ldi	r24, 0x58	; 88
     bf8:	90 e0       	ldi	r25, 0x00	; 0
     bfa:	b7 01       	movw	r22, r14
     bfc:	0c c0       	rjmp	.+24     	; 0xc16 <__stack+0x317>
     bfe:	80 2f       	mov	r24, r16
     c00:	86 78       	andi	r24, 0x86	; 134
     c02:	59 f0       	breq	.+22     	; 0xc1a <__stack+0x31b>
     c04:	01 ff       	sbrs	r16, 1
     c06:	02 c0       	rjmp	.+4      	; 0xc0c <__stack+0x30d>
     c08:	8b e2       	ldi	r24, 0x2B	; 43
     c0a:	01 c0       	rjmp	.+2      	; 0xc0e <__stack+0x30f>
     c0c:	80 e2       	ldi	r24, 0x20	; 32
     c0e:	07 fd       	sbrc	r16, 7
     c10:	8d e2       	ldi	r24, 0x2D	; 45
     c12:	b7 01       	movw	r22, r14
     c14:	90 e0       	ldi	r25, 0x00	; 0
     c16:	0e 94 d6 07 	call	0xfac	; 0xfac <fputc>
     c1a:	c1 16       	cp	r12, r17
     c1c:	38 f4       	brcc	.+14     	; 0xc2c <__stack+0x32d>
     c1e:	b7 01       	movw	r22, r14
     c20:	80 e3       	ldi	r24, 0x30	; 48
     c22:	90 e0       	ldi	r25, 0x00	; 0
     c24:	0e 94 d6 07 	call	0xfac	; 0xfac <fputc>
     c28:	11 50       	subi	r17, 0x01	; 1
     c2a:	f7 cf       	rjmp	.-18     	; 0xc1a <__stack+0x31b>
     c2c:	ca 94       	dec	r12
     c2e:	f3 01       	movw	r30, r6
     c30:	ec 0d       	add	r30, r12
     c32:	f1 1d       	adc	r31, r1
     c34:	80 81       	ld	r24, Z
     c36:	b7 01       	movw	r22, r14
     c38:	90 e0       	ldi	r25, 0x00	; 0
     c3a:	0e 94 d6 07 	call	0xfac	; 0xfac <fputc>
     c3e:	c1 10       	cpse	r12, r1
     c40:	f5 cf       	rjmp	.-22     	; 0xc2c <__stack+0x32d>
     c42:	15 c0       	rjmp	.+42     	; 0xc6e <__stack+0x36f>
     c44:	f4 e0       	ldi	r31, 0x04	; 4
     c46:	f5 15       	cp	r31, r5
     c48:	60 f5       	brcc	.+88     	; 0xca2 <__stack+0x3a3>
     c4a:	84 e0       	ldi	r24, 0x04	; 4
     c4c:	58 1a       	sub	r5, r24
     c4e:	93 fe       	sbrs	r9, 3
     c50:	1f c0       	rjmp	.+62     	; 0xc90 <__stack+0x391>
     c52:	01 11       	cpse	r16, r1
     c54:	27 c0       	rjmp	.+78     	; 0xca4 <__stack+0x3a5>
     c56:	2c 85       	ldd	r18, Y+12	; 0x0c
     c58:	23 ff       	sbrs	r18, 3
     c5a:	2a c0       	rjmp	.+84     	; 0xcb0 <__stack+0x3b1>
     c5c:	04 eb       	ldi	r16, 0xB4	; 180
     c5e:	10 e0       	ldi	r17, 0x00	; 0
     c60:	39 2d       	mov	r19, r9
     c62:	30 71       	andi	r19, 0x10	; 16
     c64:	93 2e       	mov	r9, r19
     c66:	f8 01       	movw	r30, r16
     c68:	84 91       	lpm	r24, Z
     c6a:	81 11       	cpse	r24, r1
     c6c:	24 c0       	rjmp	.+72     	; 0xcb6 <__stack+0x3b7>
     c6e:	55 20       	and	r5, r5
     c70:	09 f4       	brne	.+2      	; 0xc74 <__stack+0x375>
     c72:	e4 cc       	rjmp	.-1592   	; 0x63c <vfprintf+0x58>
     c74:	b7 01       	movw	r22, r14
     c76:	80 e2       	ldi	r24, 0x20	; 32
     c78:	90 e0       	ldi	r25, 0x00	; 0
     c7a:	0e 94 d6 07 	call	0xfac	; 0xfac <fputc>
     c7e:	5a 94       	dec	r5
     c80:	f6 cf       	rjmp	.-20     	; 0xc6e <__stack+0x36f>
     c82:	f7 01       	movw	r30, r14
     c84:	86 81       	ldd	r24, Z+6	; 0x06
     c86:	97 81       	ldd	r25, Z+7	; 0x07
     c88:	26 c0       	rjmp	.+76     	; 0xcd6 <__stack+0x3d7>
     c8a:	8f ef       	ldi	r24, 0xFF	; 255
     c8c:	9f ef       	ldi	r25, 0xFF	; 255
     c8e:	23 c0       	rjmp	.+70     	; 0xcd6 <__stack+0x3d7>
     c90:	b7 01       	movw	r22, r14
     c92:	80 e2       	ldi	r24, 0x20	; 32
     c94:	90 e0       	ldi	r25, 0x00	; 0
     c96:	0e 94 d6 07 	call	0xfac	; 0xfac <fputc>
     c9a:	5a 94       	dec	r5
     c9c:	51 10       	cpse	r5, r1
     c9e:	f8 cf       	rjmp	.-16     	; 0xc90 <__stack+0x391>
     ca0:	d8 cf       	rjmp	.-80     	; 0xc52 <__stack+0x353>
     ca2:	51 2c       	mov	r5, r1
     ca4:	b7 01       	movw	r22, r14
     ca6:	80 2f       	mov	r24, r16
     ca8:	90 e0       	ldi	r25, 0x00	; 0
     caa:	0e 94 d6 07 	call	0xfac	; 0xfac <fputc>
     cae:	d3 cf       	rjmp	.-90     	; 0xc56 <__stack+0x357>
     cb0:	08 eb       	ldi	r16, 0xB8	; 184
     cb2:	10 e0       	ldi	r17, 0x00	; 0
     cb4:	d5 cf       	rjmp	.-86     	; 0xc60 <__stack+0x361>
     cb6:	91 10       	cpse	r9, r1
     cb8:	80 52       	subi	r24, 0x20	; 32
     cba:	b7 01       	movw	r22, r14
     cbc:	90 e0       	ldi	r25, 0x00	; 0
     cbe:	0e 94 d6 07 	call	0xfac	; 0xfac <fputc>
     cc2:	0f 5f       	subi	r16, 0xFF	; 255
     cc4:	1f 4f       	sbci	r17, 0xFF	; 255
     cc6:	cf cf       	rjmp	.-98     	; 0xc66 <__stack+0x367>
     cc8:	23 e0       	ldi	r18, 0x03	; 3
     cca:	25 15       	cp	r18, r5
     ccc:	10 f4       	brcc	.+4      	; 0xcd2 <__stack+0x3d3>
     cce:	83 e0       	ldi	r24, 0x03	; 3
     cd0:	bd cf       	rjmp	.-134    	; 0xc4c <__stack+0x34d>
     cd2:	51 2c       	mov	r5, r1
     cd4:	c0 cf       	rjmp	.-128    	; 0xc56 <__stack+0x357>
     cd6:	60 96       	adiw	r28, 0x10	; 16
     cd8:	e2 e1       	ldi	r30, 0x12	; 18
     cda:	0c 94 ad 06 	jmp	0xd5a	; 0xd5a <__epilogue_restores__>

00000cde <__udivmodsi4>:
     cde:	a1 e2       	ldi	r26, 0x21	; 33
     ce0:	1a 2e       	mov	r1, r26
     ce2:	aa 1b       	sub	r26, r26
     ce4:	bb 1b       	sub	r27, r27
     ce6:	fd 01       	movw	r30, r26
     ce8:	0d c0       	rjmp	.+26     	; 0xd04 <__udivmodsi4_ep>

00000cea <__udivmodsi4_loop>:
     cea:	aa 1f       	adc	r26, r26
     cec:	bb 1f       	adc	r27, r27
     cee:	ee 1f       	adc	r30, r30
     cf0:	ff 1f       	adc	r31, r31
     cf2:	a2 17       	cp	r26, r18
     cf4:	b3 07       	cpc	r27, r19
     cf6:	e4 07       	cpc	r30, r20
     cf8:	f5 07       	cpc	r31, r21
     cfa:	20 f0       	brcs	.+8      	; 0xd04 <__udivmodsi4_ep>
     cfc:	a2 1b       	sub	r26, r18
     cfe:	b3 0b       	sbc	r27, r19
     d00:	e4 0b       	sbc	r30, r20
     d02:	f5 0b       	sbc	r31, r21

00000d04 <__udivmodsi4_ep>:
     d04:	66 1f       	adc	r22, r22
     d06:	77 1f       	adc	r23, r23
     d08:	88 1f       	adc	r24, r24
     d0a:	99 1f       	adc	r25, r25
     d0c:	1a 94       	dec	r1
     d0e:	69 f7       	brne	.-38     	; 0xcea <__udivmodsi4_loop>
     d10:	60 95       	com	r22
     d12:	70 95       	com	r23
     d14:	80 95       	com	r24
     d16:	90 95       	com	r25
     d18:	9b 01       	movw	r18, r22
     d1a:	ac 01       	movw	r20, r24
     d1c:	bd 01       	movw	r22, r26
     d1e:	cf 01       	movw	r24, r30
     d20:	08 95       	ret

00000d22 <__prologue_saves__>:
     d22:	2f 92       	push	r2
     d24:	3f 92       	push	r3
     d26:	4f 92       	push	r4
     d28:	5f 92       	push	r5
     d2a:	6f 92       	push	r6
     d2c:	7f 92       	push	r7
     d2e:	8f 92       	push	r8
     d30:	9f 92       	push	r9
     d32:	af 92       	push	r10
     d34:	bf 92       	push	r11
     d36:	cf 92       	push	r12
     d38:	df 92       	push	r13
     d3a:	ef 92       	push	r14
     d3c:	ff 92       	push	r15
     d3e:	0f 93       	push	r16
     d40:	1f 93       	push	r17
     d42:	cf 93       	push	r28
     d44:	df 93       	push	r29
     d46:	cd b7       	in	r28, 0x3d	; 61
     d48:	de b7       	in	r29, 0x3e	; 62
     d4a:	ca 1b       	sub	r28, r26
     d4c:	db 0b       	sbc	r29, r27
     d4e:	0f b6       	in	r0, 0x3f	; 63
     d50:	f8 94       	cli
     d52:	de bf       	out	0x3e, r29	; 62
     d54:	0f be       	out	0x3f, r0	; 63
     d56:	cd bf       	out	0x3d, r28	; 61
     d58:	09 94       	ijmp

00000d5a <__epilogue_restores__>:
     d5a:	2a 88       	ldd	r2, Y+18	; 0x12
     d5c:	39 88       	ldd	r3, Y+17	; 0x11
     d5e:	48 88       	ldd	r4, Y+16	; 0x10
     d60:	5f 84       	ldd	r5, Y+15	; 0x0f
     d62:	6e 84       	ldd	r6, Y+14	; 0x0e
     d64:	7d 84       	ldd	r7, Y+13	; 0x0d
     d66:	8c 84       	ldd	r8, Y+12	; 0x0c
     d68:	9b 84       	ldd	r9, Y+11	; 0x0b
     d6a:	aa 84       	ldd	r10, Y+10	; 0x0a
     d6c:	b9 84       	ldd	r11, Y+9	; 0x09
     d6e:	c8 84       	ldd	r12, Y+8	; 0x08
     d70:	df 80       	ldd	r13, Y+7	; 0x07
     d72:	ee 80       	ldd	r14, Y+6	; 0x06
     d74:	fd 80       	ldd	r15, Y+5	; 0x05
     d76:	0c 81       	ldd	r16, Y+4	; 0x04
     d78:	1b 81       	ldd	r17, Y+3	; 0x03
     d7a:	aa 81       	ldd	r26, Y+2	; 0x02
     d7c:	b9 81       	ldd	r27, Y+1	; 0x01
     d7e:	ce 0f       	add	r28, r30
     d80:	d1 1d       	adc	r29, r1
     d82:	0f b6       	in	r0, 0x3f	; 63
     d84:	f8 94       	cli
     d86:	de bf       	out	0x3e, r29	; 62
     d88:	0f be       	out	0x3f, r0	; 63
     d8a:	cd bf       	out	0x3d, r28	; 61
     d8c:	ed 01       	movw	r28, r26
     d8e:	08 95       	ret

00000d90 <dtostrf>:
     d90:	ef 92       	push	r14
     d92:	0f 93       	push	r16
     d94:	1f 93       	push	r17
     d96:	cf 93       	push	r28
     d98:	df 93       	push	r29
     d9a:	e8 01       	movw	r28, r16
     d9c:	47 fd       	sbrc	r20, 7
     d9e:	02 c0       	rjmp	.+4      	; 0xda4 <dtostrf+0x14>
     da0:	34 e0       	ldi	r19, 0x04	; 4
     da2:	01 c0       	rjmp	.+2      	; 0xda6 <dtostrf+0x16>
     da4:	34 e1       	ldi	r19, 0x14	; 20
     da6:	04 2e       	mov	r0, r20
     da8:	00 0c       	add	r0, r0
     daa:	55 0b       	sbc	r21, r21
     dac:	57 ff       	sbrs	r21, 7
     dae:	03 c0       	rjmp	.+6      	; 0xdb6 <dtostrf+0x26>
     db0:	51 95       	neg	r21
     db2:	41 95       	neg	r20
     db4:	51 09       	sbc	r21, r1
     db6:	e3 2e       	mov	r14, r19
     db8:	02 2f       	mov	r16, r18
     dba:	24 2f       	mov	r18, r20
     dbc:	ae 01       	movw	r20, r28
     dbe:	0e 94 70 08 	call	0x10e0	; 0x10e0 <dtoa_prf>
     dc2:	ce 01       	movw	r24, r28
     dc4:	df 91       	pop	r29
     dc6:	cf 91       	pop	r28
     dc8:	1f 91       	pop	r17
     dca:	0f 91       	pop	r16
     dcc:	ef 90       	pop	r14
     dce:	08 95       	ret

00000dd0 <__ftoa_engine>:
     dd0:	28 30       	cpi	r18, 0x08	; 8
     dd2:	08 f0       	brcs	.+2      	; 0xdd6 <__ftoa_engine+0x6>
     dd4:	27 e0       	ldi	r18, 0x07	; 7
     dd6:	33 27       	eor	r19, r19
     dd8:	da 01       	movw	r26, r20
     dda:	99 0f       	add	r25, r25
     ddc:	31 1d       	adc	r19, r1
     dde:	87 fd       	sbrc	r24, 7
     de0:	91 60       	ori	r25, 0x01	; 1
     de2:	00 96       	adiw	r24, 0x00	; 0
     de4:	61 05       	cpc	r22, r1
     de6:	71 05       	cpc	r23, r1
     de8:	39 f4       	brne	.+14     	; 0xdf8 <__ftoa_engine+0x28>
     dea:	32 60       	ori	r19, 0x02	; 2
     dec:	2e 5f       	subi	r18, 0xFE	; 254
     dee:	3d 93       	st	X+, r19
     df0:	30 e3       	ldi	r19, 0x30	; 48
     df2:	2a 95       	dec	r18
     df4:	e1 f7       	brne	.-8      	; 0xdee <__ftoa_engine+0x1e>
     df6:	08 95       	ret
     df8:	9f 3f       	cpi	r25, 0xFF	; 255
     dfa:	30 f0       	brcs	.+12     	; 0xe08 <__ftoa_engine+0x38>
     dfc:	80 38       	cpi	r24, 0x80	; 128
     dfe:	71 05       	cpc	r23, r1
     e00:	61 05       	cpc	r22, r1
     e02:	09 f0       	breq	.+2      	; 0xe06 <__ftoa_engine+0x36>
     e04:	3c 5f       	subi	r19, 0xFC	; 252
     e06:	3c 5f       	subi	r19, 0xFC	; 252
     e08:	3d 93       	st	X+, r19
     e0a:	91 30       	cpi	r25, 0x01	; 1
     e0c:	08 f0       	brcs	.+2      	; 0xe10 <__ftoa_engine+0x40>
     e0e:	80 68       	ori	r24, 0x80	; 128
     e10:	91 1d       	adc	r25, r1
     e12:	df 93       	push	r29
     e14:	cf 93       	push	r28
     e16:	1f 93       	push	r17
     e18:	0f 93       	push	r16
     e1a:	ff 92       	push	r15
     e1c:	ef 92       	push	r14
     e1e:	19 2f       	mov	r17, r25
     e20:	98 7f       	andi	r25, 0xF8	; 248
     e22:	96 95       	lsr	r25
     e24:	e9 2f       	mov	r30, r25
     e26:	96 95       	lsr	r25
     e28:	96 95       	lsr	r25
     e2a:	e9 0f       	add	r30, r25
     e2c:	ff 27       	eor	r31, r31
     e2e:	ea 5e       	subi	r30, 0xEA	; 234
     e30:	fe 4f       	sbci	r31, 0xFE	; 254
     e32:	99 27       	eor	r25, r25
     e34:	33 27       	eor	r19, r19
     e36:	ee 24       	eor	r14, r14
     e38:	ff 24       	eor	r15, r15
     e3a:	a7 01       	movw	r20, r14
     e3c:	e7 01       	movw	r28, r14
     e3e:	05 90       	lpm	r0, Z+
     e40:	08 94       	sec
     e42:	07 94       	ror	r0
     e44:	28 f4       	brcc	.+10     	; 0xe50 <__ftoa_engine+0x80>
     e46:	36 0f       	add	r19, r22
     e48:	e7 1e       	adc	r14, r23
     e4a:	f8 1e       	adc	r15, r24
     e4c:	49 1f       	adc	r20, r25
     e4e:	51 1d       	adc	r21, r1
     e50:	66 0f       	add	r22, r22
     e52:	77 1f       	adc	r23, r23
     e54:	88 1f       	adc	r24, r24
     e56:	99 1f       	adc	r25, r25
     e58:	06 94       	lsr	r0
     e5a:	a1 f7       	brne	.-24     	; 0xe44 <__ftoa_engine+0x74>
     e5c:	05 90       	lpm	r0, Z+
     e5e:	07 94       	ror	r0
     e60:	28 f4       	brcc	.+10     	; 0xe6c <__ftoa_engine+0x9c>
     e62:	e7 0e       	add	r14, r23
     e64:	f8 1e       	adc	r15, r24
     e66:	49 1f       	adc	r20, r25
     e68:	56 1f       	adc	r21, r22
     e6a:	c1 1d       	adc	r28, r1
     e6c:	77 0f       	add	r23, r23
     e6e:	88 1f       	adc	r24, r24
     e70:	99 1f       	adc	r25, r25
     e72:	66 1f       	adc	r22, r22
     e74:	06 94       	lsr	r0
     e76:	a1 f7       	brne	.-24     	; 0xe60 <__ftoa_engine+0x90>
     e78:	05 90       	lpm	r0, Z+
     e7a:	07 94       	ror	r0
     e7c:	28 f4       	brcc	.+10     	; 0xe88 <__ftoa_engine+0xb8>
     e7e:	f8 0e       	add	r15, r24
     e80:	49 1f       	adc	r20, r25
     e82:	56 1f       	adc	r21, r22
     e84:	c7 1f       	adc	r28, r23
     e86:	d1 1d       	adc	r29, r1
     e88:	88 0f       	add	r24, r24
     e8a:	99 1f       	adc	r25, r25
     e8c:	66 1f       	adc	r22, r22
     e8e:	77 1f       	adc	r23, r23
     e90:	06 94       	lsr	r0
     e92:	a1 f7       	brne	.-24     	; 0xe7c <__ftoa_engine+0xac>
     e94:	05 90       	lpm	r0, Z+
     e96:	07 94       	ror	r0
     e98:	20 f4       	brcc	.+8      	; 0xea2 <__ftoa_engine+0xd2>
     e9a:	49 0f       	add	r20, r25
     e9c:	56 1f       	adc	r21, r22
     e9e:	c7 1f       	adc	r28, r23
     ea0:	d8 1f       	adc	r29, r24
     ea2:	99 0f       	add	r25, r25
     ea4:	66 1f       	adc	r22, r22
     ea6:	77 1f       	adc	r23, r23
     ea8:	88 1f       	adc	r24, r24
     eaa:	06 94       	lsr	r0
     eac:	a9 f7       	brne	.-22     	; 0xe98 <__ftoa_engine+0xc8>
     eae:	84 91       	lpm	r24, Z
     eb0:	10 95       	com	r17
     eb2:	17 70       	andi	r17, 0x07	; 7
     eb4:	41 f0       	breq	.+16     	; 0xec6 <__ftoa_engine+0xf6>
     eb6:	d6 95       	lsr	r29
     eb8:	c7 95       	ror	r28
     eba:	57 95       	ror	r21
     ebc:	47 95       	ror	r20
     ebe:	f7 94       	ror	r15
     ec0:	e7 94       	ror	r14
     ec2:	1a 95       	dec	r17
     ec4:	c1 f7       	brne	.-16     	; 0xeb6 <__ftoa_engine+0xe6>
     ec6:	ec eb       	ldi	r30, 0xBC	; 188
     ec8:	f0 e0       	ldi	r31, 0x00	; 0
     eca:	68 94       	set
     ecc:	15 90       	lpm	r1, Z+
     ece:	15 91       	lpm	r17, Z+
     ed0:	35 91       	lpm	r19, Z+
     ed2:	65 91       	lpm	r22, Z+
     ed4:	95 91       	lpm	r25, Z+
     ed6:	05 90       	lpm	r0, Z+
     ed8:	7f e2       	ldi	r23, 0x2F	; 47
     eda:	73 95       	inc	r23
     edc:	e1 18       	sub	r14, r1
     ede:	f1 0a       	sbc	r15, r17
     ee0:	43 0b       	sbc	r20, r19
     ee2:	56 0b       	sbc	r21, r22
     ee4:	c9 0b       	sbc	r28, r25
     ee6:	d0 09       	sbc	r29, r0
     ee8:	c0 f7       	brcc	.-16     	; 0xeda <__ftoa_engine+0x10a>
     eea:	e1 0c       	add	r14, r1
     eec:	f1 1e       	adc	r15, r17
     eee:	43 1f       	adc	r20, r19
     ef0:	56 1f       	adc	r21, r22
     ef2:	c9 1f       	adc	r28, r25
     ef4:	d0 1d       	adc	r29, r0
     ef6:	7e f4       	brtc	.+30     	; 0xf16 <__ftoa_engine+0x146>
     ef8:	70 33       	cpi	r23, 0x30	; 48
     efa:	11 f4       	brne	.+4      	; 0xf00 <__ftoa_engine+0x130>
     efc:	8a 95       	dec	r24
     efe:	e6 cf       	rjmp	.-52     	; 0xecc <__ftoa_engine+0xfc>
     f00:	e8 94       	clt
     f02:	01 50       	subi	r16, 0x01	; 1
     f04:	30 f0       	brcs	.+12     	; 0xf12 <__ftoa_engine+0x142>
     f06:	08 0f       	add	r16, r24
     f08:	0a f4       	brpl	.+2      	; 0xf0c <__ftoa_engine+0x13c>
     f0a:	00 27       	eor	r16, r16
     f0c:	02 17       	cp	r16, r18
     f0e:	08 f4       	brcc	.+2      	; 0xf12 <__ftoa_engine+0x142>
     f10:	20 2f       	mov	r18, r16
     f12:	23 95       	inc	r18
     f14:	02 2f       	mov	r16, r18
     f16:	7a 33       	cpi	r23, 0x3A	; 58
     f18:	28 f0       	brcs	.+10     	; 0xf24 <__ftoa_engine+0x154>
     f1a:	79 e3       	ldi	r23, 0x39	; 57
     f1c:	7d 93       	st	X+, r23
     f1e:	2a 95       	dec	r18
     f20:	e9 f7       	brne	.-6      	; 0xf1c <__ftoa_engine+0x14c>
     f22:	10 c0       	rjmp	.+32     	; 0xf44 <__ftoa_engine+0x174>
     f24:	7d 93       	st	X+, r23
     f26:	2a 95       	dec	r18
     f28:	89 f6       	brne	.-94     	; 0xecc <__ftoa_engine+0xfc>
     f2a:	06 94       	lsr	r0
     f2c:	97 95       	ror	r25
     f2e:	67 95       	ror	r22
     f30:	37 95       	ror	r19
     f32:	17 95       	ror	r17
     f34:	17 94       	ror	r1
     f36:	e1 18       	sub	r14, r1
     f38:	f1 0a       	sbc	r15, r17
     f3a:	43 0b       	sbc	r20, r19
     f3c:	56 0b       	sbc	r21, r22
     f3e:	c9 0b       	sbc	r28, r25
     f40:	d0 09       	sbc	r29, r0
     f42:	98 f0       	brcs	.+38     	; 0xf6a <__ftoa_engine+0x19a>
     f44:	23 95       	inc	r18
     f46:	7e 91       	ld	r23, -X
     f48:	73 95       	inc	r23
     f4a:	7a 33       	cpi	r23, 0x3A	; 58
     f4c:	08 f0       	brcs	.+2      	; 0xf50 <__ftoa_engine+0x180>
     f4e:	70 e3       	ldi	r23, 0x30	; 48
     f50:	7c 93       	st	X, r23
     f52:	20 13       	cpse	r18, r16
     f54:	b8 f7       	brcc	.-18     	; 0xf44 <__ftoa_engine+0x174>
     f56:	7e 91       	ld	r23, -X
     f58:	70 61       	ori	r23, 0x10	; 16
     f5a:	7d 93       	st	X+, r23
     f5c:	30 f0       	brcs	.+12     	; 0xf6a <__ftoa_engine+0x19a>
     f5e:	83 95       	inc	r24
     f60:	71 e3       	ldi	r23, 0x31	; 49
     f62:	7d 93       	st	X+, r23
     f64:	70 e3       	ldi	r23, 0x30	; 48
     f66:	2a 95       	dec	r18
     f68:	e1 f7       	brne	.-8      	; 0xf62 <__ftoa_engine+0x192>
     f6a:	11 24       	eor	r1, r1
     f6c:	ef 90       	pop	r14
     f6e:	ff 90       	pop	r15
     f70:	0f 91       	pop	r16
     f72:	1f 91       	pop	r17
     f74:	cf 91       	pop	r28
     f76:	df 91       	pop	r29
     f78:	99 27       	eor	r25, r25
     f7a:	87 fd       	sbrc	r24, 7
     f7c:	90 95       	com	r25
     f7e:	08 95       	ret

00000f80 <strnlen_P>:
     f80:	fc 01       	movw	r30, r24
     f82:	05 90       	lpm	r0, Z+
     f84:	61 50       	subi	r22, 0x01	; 1
     f86:	70 40       	sbci	r23, 0x00	; 0
     f88:	01 10       	cpse	r0, r1
     f8a:	d8 f7       	brcc	.-10     	; 0xf82 <strnlen_P+0x2>
     f8c:	80 95       	com	r24
     f8e:	90 95       	com	r25
     f90:	8e 0f       	add	r24, r30
     f92:	9f 1f       	adc	r25, r31
     f94:	08 95       	ret

00000f96 <strnlen>:
     f96:	fc 01       	movw	r30, r24
     f98:	61 50       	subi	r22, 0x01	; 1
     f9a:	70 40       	sbci	r23, 0x00	; 0
     f9c:	01 90       	ld	r0, Z+
     f9e:	01 10       	cpse	r0, r1
     fa0:	d8 f7       	brcc	.-10     	; 0xf98 <strnlen+0x2>
     fa2:	80 95       	com	r24
     fa4:	90 95       	com	r25
     fa6:	8e 0f       	add	r24, r30
     fa8:	9f 1f       	adc	r25, r31
     faa:	08 95       	ret

00000fac <fputc>:
     fac:	0f 93       	push	r16
     fae:	1f 93       	push	r17
     fb0:	cf 93       	push	r28
     fb2:	df 93       	push	r29
     fb4:	fb 01       	movw	r30, r22
     fb6:	23 81       	ldd	r18, Z+3	; 0x03
     fb8:	21 fd       	sbrc	r18, 1
     fba:	03 c0       	rjmp	.+6      	; 0xfc2 <fputc+0x16>
     fbc:	8f ef       	ldi	r24, 0xFF	; 255
     fbe:	9f ef       	ldi	r25, 0xFF	; 255
     fc0:	2c c0       	rjmp	.+88     	; 0x101a <fputc+0x6e>
     fc2:	22 ff       	sbrs	r18, 2
     fc4:	16 c0       	rjmp	.+44     	; 0xff2 <fputc+0x46>
     fc6:	46 81       	ldd	r20, Z+6	; 0x06
     fc8:	57 81       	ldd	r21, Z+7	; 0x07
     fca:	24 81       	ldd	r18, Z+4	; 0x04
     fcc:	35 81       	ldd	r19, Z+5	; 0x05
     fce:	42 17       	cp	r20, r18
     fd0:	53 07       	cpc	r21, r19
     fd2:	44 f4       	brge	.+16     	; 0xfe4 <fputc+0x38>
     fd4:	a0 81       	ld	r26, Z
     fd6:	b1 81       	ldd	r27, Z+1	; 0x01
     fd8:	9d 01       	movw	r18, r26
     fda:	2f 5f       	subi	r18, 0xFF	; 255
     fdc:	3f 4f       	sbci	r19, 0xFF	; 255
     fde:	31 83       	std	Z+1, r19	; 0x01
     fe0:	20 83       	st	Z, r18
     fe2:	8c 93       	st	X, r24
     fe4:	26 81       	ldd	r18, Z+6	; 0x06
     fe6:	37 81       	ldd	r19, Z+7	; 0x07
     fe8:	2f 5f       	subi	r18, 0xFF	; 255
     fea:	3f 4f       	sbci	r19, 0xFF	; 255
     fec:	37 83       	std	Z+7, r19	; 0x07
     fee:	26 83       	std	Z+6, r18	; 0x06
     ff0:	14 c0       	rjmp	.+40     	; 0x101a <fputc+0x6e>
     ff2:	8b 01       	movw	r16, r22
     ff4:	ec 01       	movw	r28, r24
     ff6:	fb 01       	movw	r30, r22
     ff8:	00 84       	ldd	r0, Z+8	; 0x08
     ffa:	f1 85       	ldd	r31, Z+9	; 0x09
     ffc:	e0 2d       	mov	r30, r0
     ffe:	09 95       	icall
    1000:	89 2b       	or	r24, r25
    1002:	e1 f6       	brne	.-72     	; 0xfbc <fputc+0x10>
    1004:	d8 01       	movw	r26, r16
    1006:	16 96       	adiw	r26, 0x06	; 6
    1008:	8d 91       	ld	r24, X+
    100a:	9c 91       	ld	r25, X
    100c:	17 97       	sbiw	r26, 0x07	; 7
    100e:	01 96       	adiw	r24, 0x01	; 1
    1010:	17 96       	adiw	r26, 0x07	; 7
    1012:	9c 93       	st	X, r25
    1014:	8e 93       	st	-X, r24
    1016:	16 97       	sbiw	r26, 0x06	; 6
    1018:	ce 01       	movw	r24, r28
    101a:	df 91       	pop	r29
    101c:	cf 91       	pop	r28
    101e:	1f 91       	pop	r17
    1020:	0f 91       	pop	r16
    1022:	08 95       	ret

00001024 <__ultoa_invert>:
    1024:	fa 01       	movw	r30, r20
    1026:	aa 27       	eor	r26, r26
    1028:	28 30       	cpi	r18, 0x08	; 8
    102a:	51 f1       	breq	.+84     	; 0x1080 <__ultoa_invert+0x5c>
    102c:	20 31       	cpi	r18, 0x10	; 16
    102e:	81 f1       	breq	.+96     	; 0x1090 <__ultoa_invert+0x6c>
    1030:	e8 94       	clt
    1032:	6f 93       	push	r22
    1034:	6e 7f       	andi	r22, 0xFE	; 254
    1036:	6e 5f       	subi	r22, 0xFE	; 254
    1038:	7f 4f       	sbci	r23, 0xFF	; 255
    103a:	8f 4f       	sbci	r24, 0xFF	; 255
    103c:	9f 4f       	sbci	r25, 0xFF	; 255
    103e:	af 4f       	sbci	r26, 0xFF	; 255
    1040:	b1 e0       	ldi	r27, 0x01	; 1
    1042:	3e d0       	rcall	.+124    	; 0x10c0 <__ultoa_invert+0x9c>
    1044:	b4 e0       	ldi	r27, 0x04	; 4
    1046:	3c d0       	rcall	.+120    	; 0x10c0 <__ultoa_invert+0x9c>
    1048:	67 0f       	add	r22, r23
    104a:	78 1f       	adc	r23, r24
    104c:	89 1f       	adc	r24, r25
    104e:	9a 1f       	adc	r25, r26
    1050:	a1 1d       	adc	r26, r1
    1052:	68 0f       	add	r22, r24
    1054:	79 1f       	adc	r23, r25
    1056:	8a 1f       	adc	r24, r26
    1058:	91 1d       	adc	r25, r1
    105a:	a1 1d       	adc	r26, r1
    105c:	6a 0f       	add	r22, r26
    105e:	71 1d       	adc	r23, r1
    1060:	81 1d       	adc	r24, r1
    1062:	91 1d       	adc	r25, r1
    1064:	a1 1d       	adc	r26, r1
    1066:	20 d0       	rcall	.+64     	; 0x10a8 <__ultoa_invert+0x84>
    1068:	09 f4       	brne	.+2      	; 0x106c <__ultoa_invert+0x48>
    106a:	68 94       	set
    106c:	3f 91       	pop	r19
    106e:	2a e0       	ldi	r18, 0x0A	; 10
    1070:	26 9f       	mul	r18, r22
    1072:	11 24       	eor	r1, r1
    1074:	30 19       	sub	r19, r0
    1076:	30 5d       	subi	r19, 0xD0	; 208
    1078:	31 93       	st	Z+, r19
    107a:	de f6       	brtc	.-74     	; 0x1032 <__ultoa_invert+0xe>
    107c:	cf 01       	movw	r24, r30
    107e:	08 95       	ret
    1080:	46 2f       	mov	r20, r22
    1082:	47 70       	andi	r20, 0x07	; 7
    1084:	40 5d       	subi	r20, 0xD0	; 208
    1086:	41 93       	st	Z+, r20
    1088:	b3 e0       	ldi	r27, 0x03	; 3
    108a:	0f d0       	rcall	.+30     	; 0x10aa <__ultoa_invert+0x86>
    108c:	c9 f7       	brne	.-14     	; 0x1080 <__ultoa_invert+0x5c>
    108e:	f6 cf       	rjmp	.-20     	; 0x107c <__ultoa_invert+0x58>
    1090:	46 2f       	mov	r20, r22
    1092:	4f 70       	andi	r20, 0x0F	; 15
    1094:	40 5d       	subi	r20, 0xD0	; 208
    1096:	4a 33       	cpi	r20, 0x3A	; 58
    1098:	18 f0       	brcs	.+6      	; 0x10a0 <__ultoa_invert+0x7c>
    109a:	49 5d       	subi	r20, 0xD9	; 217
    109c:	31 fd       	sbrc	r19, 1
    109e:	40 52       	subi	r20, 0x20	; 32
    10a0:	41 93       	st	Z+, r20
    10a2:	02 d0       	rcall	.+4      	; 0x10a8 <__ultoa_invert+0x84>
    10a4:	a9 f7       	brne	.-22     	; 0x1090 <__ultoa_invert+0x6c>
    10a6:	ea cf       	rjmp	.-44     	; 0x107c <__ultoa_invert+0x58>
    10a8:	b4 e0       	ldi	r27, 0x04	; 4
    10aa:	a6 95       	lsr	r26
    10ac:	97 95       	ror	r25
    10ae:	87 95       	ror	r24
    10b0:	77 95       	ror	r23
    10b2:	67 95       	ror	r22
    10b4:	ba 95       	dec	r27
    10b6:	c9 f7       	brne	.-14     	; 0x10aa <__ultoa_invert+0x86>
    10b8:	00 97       	sbiw	r24, 0x00	; 0
    10ba:	61 05       	cpc	r22, r1
    10bc:	71 05       	cpc	r23, r1
    10be:	08 95       	ret
    10c0:	9b 01       	movw	r18, r22
    10c2:	ac 01       	movw	r20, r24
    10c4:	0a 2e       	mov	r0, r26
    10c6:	06 94       	lsr	r0
    10c8:	57 95       	ror	r21
    10ca:	47 95       	ror	r20
    10cc:	37 95       	ror	r19
    10ce:	27 95       	ror	r18
    10d0:	ba 95       	dec	r27
    10d2:	c9 f7       	brne	.-14     	; 0x10c6 <__ultoa_invert+0xa2>
    10d4:	62 0f       	add	r22, r18
    10d6:	73 1f       	adc	r23, r19
    10d8:	84 1f       	adc	r24, r20
    10da:	95 1f       	adc	r25, r21
    10dc:	a0 1d       	adc	r26, r0
    10de:	08 95       	ret

000010e0 <dtoa_prf>:
    10e0:	a9 e0       	ldi	r26, 0x09	; 9
    10e2:	b0 e0       	ldi	r27, 0x00	; 0
    10e4:	e6 e7       	ldi	r30, 0x76	; 118
    10e6:	f8 e0       	ldi	r31, 0x08	; 8
    10e8:	0c 94 97 06 	jmp	0xd2e	; 0xd2e <__prologue_saves__+0xc>
    10ec:	6a 01       	movw	r12, r20
    10ee:	12 2f       	mov	r17, r18
    10f0:	b0 2e       	mov	r11, r16
    10f2:	2b e3       	ldi	r18, 0x3B	; 59
    10f4:	20 17       	cp	r18, r16
    10f6:	20 f0       	brcs	.+8      	; 0x1100 <dtoa_prf+0x20>
    10f8:	ff 24       	eor	r15, r15
    10fa:	f3 94       	inc	r15
    10fc:	f0 0e       	add	r15, r16
    10fe:	02 c0       	rjmp	.+4      	; 0x1104 <dtoa_prf+0x24>
    1100:	2c e3       	ldi	r18, 0x3C	; 60
    1102:	f2 2e       	mov	r15, r18
    1104:	0f 2d       	mov	r16, r15
    1106:	27 e0       	ldi	r18, 0x07	; 7
    1108:	ae 01       	movw	r20, r28
    110a:	4f 5f       	subi	r20, 0xFF	; 255
    110c:	5f 4f       	sbci	r21, 0xFF	; 255
    110e:	0e 94 e8 06 	call	0xdd0	; 0xdd0 <__ftoa_engine>
    1112:	bc 01       	movw	r22, r24
    1114:	49 81       	ldd	r20, Y+1	; 0x01
    1116:	84 2f       	mov	r24, r20
    1118:	89 70       	andi	r24, 0x09	; 9
    111a:	81 30       	cpi	r24, 0x01	; 1
    111c:	31 f0       	breq	.+12     	; 0x112a <dtoa_prf+0x4a>
    111e:	e1 fc       	sbrc	r14, 1
    1120:	06 c0       	rjmp	.+12     	; 0x112e <dtoa_prf+0x4e>
    1122:	e0 fe       	sbrs	r14, 0
    1124:	06 c0       	rjmp	.+12     	; 0x1132 <dtoa_prf+0x52>
    1126:	90 e2       	ldi	r25, 0x20	; 32
    1128:	05 c0       	rjmp	.+10     	; 0x1134 <dtoa_prf+0x54>
    112a:	9d e2       	ldi	r25, 0x2D	; 45
    112c:	03 c0       	rjmp	.+6      	; 0x1134 <dtoa_prf+0x54>
    112e:	9b e2       	ldi	r25, 0x2B	; 43
    1130:	01 c0       	rjmp	.+2      	; 0x1134 <dtoa_prf+0x54>
    1132:	90 e0       	ldi	r25, 0x00	; 0
    1134:	5e 2d       	mov	r21, r14
    1136:	50 71       	andi	r21, 0x10	; 16
    1138:	43 ff       	sbrs	r20, 3
    113a:	3c c0       	rjmp	.+120    	; 0x11b4 <dtoa_prf+0xd4>
    113c:	91 11       	cpse	r25, r1
    113e:	02 c0       	rjmp	.+4      	; 0x1144 <dtoa_prf+0x64>
    1140:	83 e0       	ldi	r24, 0x03	; 3
    1142:	01 c0       	rjmp	.+2      	; 0x1146 <dtoa_prf+0x66>
    1144:	84 e0       	ldi	r24, 0x04	; 4
    1146:	81 17       	cp	r24, r17
    1148:	18 f4       	brcc	.+6      	; 0x1150 <dtoa_prf+0x70>
    114a:	21 2f       	mov	r18, r17
    114c:	28 1b       	sub	r18, r24
    114e:	01 c0       	rjmp	.+2      	; 0x1152 <dtoa_prf+0x72>
    1150:	20 e0       	ldi	r18, 0x00	; 0
    1152:	51 11       	cpse	r21, r1
    1154:	0b c0       	rjmp	.+22     	; 0x116c <dtoa_prf+0x8c>
    1156:	f6 01       	movw	r30, r12
    1158:	82 2f       	mov	r24, r18
    115a:	30 e2       	ldi	r19, 0x20	; 32
    115c:	88 23       	and	r24, r24
    115e:	19 f0       	breq	.+6      	; 0x1166 <dtoa_prf+0x86>
    1160:	31 93       	st	Z+, r19
    1162:	81 50       	subi	r24, 0x01	; 1
    1164:	fb cf       	rjmp	.-10     	; 0x115c <dtoa_prf+0x7c>
    1166:	c2 0e       	add	r12, r18
    1168:	d1 1c       	adc	r13, r1
    116a:	20 e0       	ldi	r18, 0x00	; 0
    116c:	99 23       	and	r25, r25
    116e:	29 f0       	breq	.+10     	; 0x117a <dtoa_prf+0x9a>
    1170:	d6 01       	movw	r26, r12
    1172:	9c 93       	st	X, r25
    1174:	f6 01       	movw	r30, r12
    1176:	31 96       	adiw	r30, 0x01	; 1
    1178:	6f 01       	movw	r12, r30
    117a:	c6 01       	movw	r24, r12
    117c:	03 96       	adiw	r24, 0x03	; 3
    117e:	e2 fe       	sbrs	r14, 2
    1180:	0a c0       	rjmp	.+20     	; 0x1196 <dtoa_prf+0xb6>
    1182:	3e e4       	ldi	r19, 0x4E	; 78
    1184:	d6 01       	movw	r26, r12
    1186:	3c 93       	st	X, r19
    1188:	41 e4       	ldi	r20, 0x41	; 65
    118a:	11 96       	adiw	r26, 0x01	; 1
    118c:	4c 93       	st	X, r20
    118e:	11 97       	sbiw	r26, 0x01	; 1
    1190:	12 96       	adiw	r26, 0x02	; 2
    1192:	3c 93       	st	X, r19
    1194:	06 c0       	rjmp	.+12     	; 0x11a2 <dtoa_prf+0xc2>
    1196:	3e e6       	ldi	r19, 0x6E	; 110
    1198:	f6 01       	movw	r30, r12
    119a:	30 83       	st	Z, r19
    119c:	41 e6       	ldi	r20, 0x61	; 97
    119e:	41 83       	std	Z+1, r20	; 0x01
    11a0:	32 83       	std	Z+2, r19	; 0x02
    11a2:	fc 01       	movw	r30, r24
    11a4:	32 2f       	mov	r19, r18
    11a6:	40 e2       	ldi	r20, 0x20	; 32
    11a8:	33 23       	and	r19, r19
    11aa:	09 f4       	brne	.+2      	; 0x11ae <dtoa_prf+0xce>
    11ac:	42 c0       	rjmp	.+132    	; 0x1232 <dtoa_prf+0x152>
    11ae:	41 93       	st	Z+, r20
    11b0:	31 50       	subi	r19, 0x01	; 1
    11b2:	fa cf       	rjmp	.-12     	; 0x11a8 <dtoa_prf+0xc8>
    11b4:	42 ff       	sbrs	r20, 2
    11b6:	44 c0       	rjmp	.+136    	; 0x1240 <dtoa_prf+0x160>
    11b8:	91 11       	cpse	r25, r1
    11ba:	02 c0       	rjmp	.+4      	; 0x11c0 <dtoa_prf+0xe0>
    11bc:	83 e0       	ldi	r24, 0x03	; 3
    11be:	01 c0       	rjmp	.+2      	; 0x11c2 <dtoa_prf+0xe2>
    11c0:	84 e0       	ldi	r24, 0x04	; 4
    11c2:	81 17       	cp	r24, r17
    11c4:	18 f4       	brcc	.+6      	; 0x11cc <dtoa_prf+0xec>
    11c6:	21 2f       	mov	r18, r17
    11c8:	28 1b       	sub	r18, r24
    11ca:	01 c0       	rjmp	.+2      	; 0x11ce <dtoa_prf+0xee>
    11cc:	20 e0       	ldi	r18, 0x00	; 0
    11ce:	51 11       	cpse	r21, r1
    11d0:	0b c0       	rjmp	.+22     	; 0x11e8 <dtoa_prf+0x108>
    11d2:	f6 01       	movw	r30, r12
    11d4:	82 2f       	mov	r24, r18
    11d6:	30 e2       	ldi	r19, 0x20	; 32
    11d8:	88 23       	and	r24, r24
    11da:	19 f0       	breq	.+6      	; 0x11e2 <dtoa_prf+0x102>
    11dc:	31 93       	st	Z+, r19
    11de:	81 50       	subi	r24, 0x01	; 1
    11e0:	fb cf       	rjmp	.-10     	; 0x11d8 <dtoa_prf+0xf8>
    11e2:	c2 0e       	add	r12, r18
    11e4:	d1 1c       	adc	r13, r1
    11e6:	20 e0       	ldi	r18, 0x00	; 0
    11e8:	99 23       	and	r25, r25
    11ea:	29 f0       	breq	.+10     	; 0x11f6 <dtoa_prf+0x116>
    11ec:	d6 01       	movw	r26, r12
    11ee:	9c 93       	st	X, r25
    11f0:	f6 01       	movw	r30, r12
    11f2:	31 96       	adiw	r30, 0x01	; 1
    11f4:	6f 01       	movw	r12, r30
    11f6:	c6 01       	movw	r24, r12
    11f8:	03 96       	adiw	r24, 0x03	; 3
    11fa:	e2 fe       	sbrs	r14, 2
    11fc:	0b c0       	rjmp	.+22     	; 0x1214 <dtoa_prf+0x134>
    11fe:	39 e4       	ldi	r19, 0x49	; 73
    1200:	d6 01       	movw	r26, r12
    1202:	3c 93       	st	X, r19
    1204:	3e e4       	ldi	r19, 0x4E	; 78
    1206:	11 96       	adiw	r26, 0x01	; 1
    1208:	3c 93       	st	X, r19
    120a:	11 97       	sbiw	r26, 0x01	; 1
    120c:	36 e4       	ldi	r19, 0x46	; 70
    120e:	12 96       	adiw	r26, 0x02	; 2
    1210:	3c 93       	st	X, r19
    1212:	07 c0       	rjmp	.+14     	; 0x1222 <dtoa_prf+0x142>
    1214:	39 e6       	ldi	r19, 0x69	; 105
    1216:	f6 01       	movw	r30, r12
    1218:	30 83       	st	Z, r19
    121a:	3e e6       	ldi	r19, 0x6E	; 110
    121c:	31 83       	std	Z+1, r19	; 0x01
    121e:	36 e6       	ldi	r19, 0x66	; 102
    1220:	32 83       	std	Z+2, r19	; 0x02
    1222:	fc 01       	movw	r30, r24
    1224:	32 2f       	mov	r19, r18
    1226:	40 e2       	ldi	r20, 0x20	; 32
    1228:	33 23       	and	r19, r19
    122a:	19 f0       	breq	.+6      	; 0x1232 <dtoa_prf+0x152>
    122c:	41 93       	st	Z+, r20
    122e:	31 50       	subi	r19, 0x01	; 1
    1230:	fb cf       	rjmp	.-10     	; 0x1228 <dtoa_prf+0x148>
    1232:	fc 01       	movw	r30, r24
    1234:	e2 0f       	add	r30, r18
    1236:	f1 1d       	adc	r31, r1
    1238:	10 82       	st	Z, r1
    123a:	8e ef       	ldi	r24, 0xFE	; 254
    123c:	9f ef       	ldi	r25, 0xFF	; 255
    123e:	a6 c0       	rjmp	.+332    	; 0x138c <dtoa_prf+0x2ac>
    1240:	21 e0       	ldi	r18, 0x01	; 1
    1242:	30 e0       	ldi	r19, 0x00	; 0
    1244:	91 11       	cpse	r25, r1
    1246:	02 c0       	rjmp	.+4      	; 0x124c <dtoa_prf+0x16c>
    1248:	20 e0       	ldi	r18, 0x00	; 0
    124a:	30 e0       	ldi	r19, 0x00	; 0
    124c:	16 16       	cp	r1, r22
    124e:	17 06       	cpc	r1, r23
    1250:	1c f4       	brge	.+6      	; 0x1258 <dtoa_prf+0x178>
    1252:	fb 01       	movw	r30, r22
    1254:	31 96       	adiw	r30, 0x01	; 1
    1256:	02 c0       	rjmp	.+4      	; 0x125c <dtoa_prf+0x17c>
    1258:	e1 e0       	ldi	r30, 0x01	; 1
    125a:	f0 e0       	ldi	r31, 0x00	; 0
    125c:	2e 0f       	add	r18, r30
    125e:	3f 1f       	adc	r19, r31
    1260:	bb 20       	and	r11, r11
    1262:	21 f0       	breq	.+8      	; 0x126c <dtoa_prf+0x18c>
    1264:	eb 2d       	mov	r30, r11
    1266:	f0 e0       	ldi	r31, 0x00	; 0
    1268:	31 96       	adiw	r30, 0x01	; 1
    126a:	02 c0       	rjmp	.+4      	; 0x1270 <dtoa_prf+0x190>
    126c:	e0 e0       	ldi	r30, 0x00	; 0
    126e:	f0 e0       	ldi	r31, 0x00	; 0
    1270:	2e 0f       	add	r18, r30
    1272:	3f 1f       	adc	r19, r31
    1274:	e1 2f       	mov	r30, r17
    1276:	f0 e0       	ldi	r31, 0x00	; 0
    1278:	2e 17       	cp	r18, r30
    127a:	3f 07       	cpc	r19, r31
    127c:	1c f4       	brge	.+6      	; 0x1284 <dtoa_prf+0x1a4>
    127e:	12 1b       	sub	r17, r18
    1280:	21 2f       	mov	r18, r17
    1282:	01 c0       	rjmp	.+2      	; 0x1286 <dtoa_prf+0x1a6>
    1284:	20 e0       	ldi	r18, 0x00	; 0
    1286:	8e 2d       	mov	r24, r14
    1288:	88 71       	andi	r24, 0x18	; 24
    128a:	59 f4       	brne	.+22     	; 0x12a2 <dtoa_prf+0x1c2>
    128c:	f6 01       	movw	r30, r12
    128e:	82 2f       	mov	r24, r18
    1290:	30 e2       	ldi	r19, 0x20	; 32
    1292:	88 23       	and	r24, r24
    1294:	19 f0       	breq	.+6      	; 0x129c <dtoa_prf+0x1bc>
    1296:	31 93       	st	Z+, r19
    1298:	81 50       	subi	r24, 0x01	; 1
    129a:	fb cf       	rjmp	.-10     	; 0x1292 <dtoa_prf+0x1b2>
    129c:	c2 0e       	add	r12, r18
    129e:	d1 1c       	adc	r13, r1
    12a0:	20 e0       	ldi	r18, 0x00	; 0
    12a2:	99 23       	and	r25, r25
    12a4:	29 f0       	breq	.+10     	; 0x12b0 <dtoa_prf+0x1d0>
    12a6:	d6 01       	movw	r26, r12
    12a8:	9c 93       	st	X, r25
    12aa:	f6 01       	movw	r30, r12
    12ac:	31 96       	adiw	r30, 0x01	; 1
    12ae:	6f 01       	movw	r12, r30
    12b0:	51 11       	cpse	r21, r1
    12b2:	0b c0       	rjmp	.+22     	; 0x12ca <dtoa_prf+0x1ea>
    12b4:	f6 01       	movw	r30, r12
    12b6:	82 2f       	mov	r24, r18
    12b8:	90 e3       	ldi	r25, 0x30	; 48
    12ba:	88 23       	and	r24, r24
    12bc:	19 f0       	breq	.+6      	; 0x12c4 <dtoa_prf+0x1e4>
    12be:	91 93       	st	Z+, r25
    12c0:	81 50       	subi	r24, 0x01	; 1
    12c2:	fb cf       	rjmp	.-10     	; 0x12ba <dtoa_prf+0x1da>
    12c4:	c2 0e       	add	r12, r18
    12c6:	d1 1c       	adc	r13, r1
    12c8:	20 e0       	ldi	r18, 0x00	; 0
    12ca:	0f 2d       	mov	r16, r15
    12cc:	06 0f       	add	r16, r22
    12ce:	9a 81       	ldd	r25, Y+2	; 0x02
    12d0:	34 2f       	mov	r19, r20
    12d2:	30 71       	andi	r19, 0x10	; 16
    12d4:	44 ff       	sbrs	r20, 4
    12d6:	03 c0       	rjmp	.+6      	; 0x12de <dtoa_prf+0x1fe>
    12d8:	91 33       	cpi	r25, 0x31	; 49
    12da:	09 f4       	brne	.+2      	; 0x12de <dtoa_prf+0x1fe>
    12dc:	01 50       	subi	r16, 0x01	; 1
    12de:	10 16       	cp	r1, r16
    12e0:	24 f4       	brge	.+8      	; 0x12ea <dtoa_prf+0x20a>
    12e2:	09 30       	cpi	r16, 0x09	; 9
    12e4:	18 f0       	brcs	.+6      	; 0x12ec <dtoa_prf+0x20c>
    12e6:	08 e0       	ldi	r16, 0x08	; 8
    12e8:	01 c0       	rjmp	.+2      	; 0x12ec <dtoa_prf+0x20c>
    12ea:	01 e0       	ldi	r16, 0x01	; 1
    12ec:	ab 01       	movw	r20, r22
    12ee:	77 ff       	sbrs	r23, 7
    12f0:	02 c0       	rjmp	.+4      	; 0x12f6 <dtoa_prf+0x216>
    12f2:	40 e0       	ldi	r20, 0x00	; 0
    12f4:	50 e0       	ldi	r21, 0x00	; 0
    12f6:	fb 01       	movw	r30, r22
    12f8:	e4 1b       	sub	r30, r20
    12fa:	f5 0b       	sbc	r31, r21
    12fc:	a1 e0       	ldi	r26, 0x01	; 1
    12fe:	b0 e0       	ldi	r27, 0x00	; 0
    1300:	ac 0f       	add	r26, r28
    1302:	bd 1f       	adc	r27, r29
    1304:	ea 0f       	add	r30, r26
    1306:	fb 1f       	adc	r31, r27
    1308:	8e e2       	ldi	r24, 0x2E	; 46
    130a:	a8 2e       	mov	r10, r24
    130c:	4b 01       	movw	r8, r22
    130e:	80 1a       	sub	r8, r16
    1310:	91 08       	sbc	r9, r1
    1312:	0b 2d       	mov	r16, r11
    1314:	10 e0       	ldi	r17, 0x00	; 0
    1316:	11 95       	neg	r17
    1318:	01 95       	neg	r16
    131a:	11 09       	sbc	r17, r1
    131c:	4f 3f       	cpi	r20, 0xFF	; 255
    131e:	bf ef       	ldi	r27, 0xFF	; 255
    1320:	5b 07       	cpc	r21, r27
    1322:	21 f4       	brne	.+8      	; 0x132c <dtoa_prf+0x24c>
    1324:	d6 01       	movw	r26, r12
    1326:	ac 92       	st	X, r10
    1328:	11 96       	adiw	r26, 0x01	; 1
    132a:	6d 01       	movw	r12, r26
    132c:	64 17       	cp	r22, r20
    132e:	75 07       	cpc	r23, r21
    1330:	2c f0       	brlt	.+10     	; 0x133c <dtoa_prf+0x25c>
    1332:	84 16       	cp	r8, r20
    1334:	95 06       	cpc	r9, r21
    1336:	14 f4       	brge	.+4      	; 0x133c <dtoa_prf+0x25c>
    1338:	81 81       	ldd	r24, Z+1	; 0x01
    133a:	01 c0       	rjmp	.+2      	; 0x133e <dtoa_prf+0x25e>
    133c:	80 e3       	ldi	r24, 0x30	; 48
    133e:	41 50       	subi	r20, 0x01	; 1
    1340:	51 09       	sbc	r21, r1
    1342:	31 96       	adiw	r30, 0x01	; 1
    1344:	d6 01       	movw	r26, r12
    1346:	11 96       	adiw	r26, 0x01	; 1
    1348:	7d 01       	movw	r14, r26
    134a:	40 17       	cp	r20, r16
    134c:	51 07       	cpc	r21, r17
    134e:	24 f0       	brlt	.+8      	; 0x1358 <dtoa_prf+0x278>
    1350:	d6 01       	movw	r26, r12
    1352:	8c 93       	st	X, r24
    1354:	67 01       	movw	r12, r14
    1356:	e2 cf       	rjmp	.-60     	; 0x131c <dtoa_prf+0x23c>
    1358:	64 17       	cp	r22, r20
    135a:	75 07       	cpc	r23, r21
    135c:	39 f4       	brne	.+14     	; 0x136c <dtoa_prf+0x28c>
    135e:	96 33       	cpi	r25, 0x36	; 54
    1360:	20 f4       	brcc	.+8      	; 0x136a <dtoa_prf+0x28a>
    1362:	95 33       	cpi	r25, 0x35	; 53
    1364:	19 f4       	brne	.+6      	; 0x136c <dtoa_prf+0x28c>
    1366:	31 11       	cpse	r19, r1
    1368:	01 c0       	rjmp	.+2      	; 0x136c <dtoa_prf+0x28c>
    136a:	81 e3       	ldi	r24, 0x31	; 49
    136c:	f6 01       	movw	r30, r12
    136e:	80 83       	st	Z, r24
    1370:	f7 01       	movw	r30, r14
    1372:	82 2f       	mov	r24, r18
    1374:	90 e2       	ldi	r25, 0x20	; 32
    1376:	88 23       	and	r24, r24
    1378:	19 f0       	breq	.+6      	; 0x1380 <dtoa_prf+0x2a0>
    137a:	91 93       	st	Z+, r25
    137c:	81 50       	subi	r24, 0x01	; 1
    137e:	fb cf       	rjmp	.-10     	; 0x1376 <dtoa_prf+0x296>
    1380:	f7 01       	movw	r30, r14
    1382:	e2 0f       	add	r30, r18
    1384:	f1 1d       	adc	r31, r1
    1386:	10 82       	st	Z, r1
    1388:	80 e0       	ldi	r24, 0x00	; 0
    138a:	90 e0       	ldi	r25, 0x00	; 0
    138c:	29 96       	adiw	r28, 0x09	; 9
    138e:	ec e0       	ldi	r30, 0x0C	; 12
    1390:	0c 94 b3 06 	jmp	0xd66	; 0xd66 <__epilogue_restores__+0xc>

00001394 <_exit>:
    1394:	f8 94       	cli

00001396 <__stop_program>:
    1396:	ff cf       	rjmp	.-2      	; 0x1396 <__stop_program>
